ARM GAS  C:\Users\rohi2\AppData\Local\Temp\ccKb2bhd.s 			page 1


   1              		.syntax unified
   2              		.cpu cortex-m3
   3              		.fpu softvfp
   4              		.eabi_attribute 20, 1
   5              		.eabi_attribute 21, 1
   6              		.eabi_attribute 23, 3
   7              		.eabi_attribute 24, 1
   8              		.eabi_attribute 25, 1
   9              		.eabi_attribute 26, 1
  10              		.eabi_attribute 30, 1
  11              		.eabi_attribute 34, 1
  12              		.eabi_attribute 18, 4
  13              		.thumb
  14              		.file	"main.c"
  15              		.text
  16              	.Ltext0:
  17              		.cfi_sections	.debug_frame
  18              		.section	.text.HALL_SENSOR,"ax",%progbits
  19              		.align	2
  20              		.global	HALL_SENSOR
  21              		.thumb
  22              		.thumb_func
  23              		.type	HALL_SENSOR, %function
  24              	HALL_SENSOR:
  25              	.LFB77:
  26              		.file 1 "main.c"
   1:main.c        **** 
   2:main.c        **** /* ========================================
   3:main.c        ****     HRLV- EZ4 Ultrasonic sensors and stepper motor interfacing
   4:main.c        ****     26 Jul 2017
   5:main.c        ****     Tarun and Rohith
   6:main.c        ****     
   7:main.c        ****     Adaptive Headlight:  This code controls two stepper motors which aim a 
   8:main.c        ****     bicycle or motorcycle headlight in ther desired direction regardless of
   9:main.c        ****     the tilt of the vehicle, which is detected by an ultrasonic sensor.
  10:main.c        ****     
  11:main.c        ****     In this version, speed is not taken intpo account but should be in later 
  12:main.c        ****     versions.
  13:main.c        ****     
  14:main.c        ****     Summer Project
  15:main.c        ****  * ========================================
  16:main.c        **** */
  17:main.c        **** #include "project.h"
  18:main.c        **** #include <stdio.h>
  19:main.c        **** #include <stdlib.h>
  20:main.c        **** 
  21:main.c        **** // Diagnostic (test) variablrs.
  22:main.c        **** uint32 bad_dx_count ;
  23:main.c        **** float percent_good_counts ;
  24:main.c        **** uint32 bad_event_array[10] ;  // Keep track whenever something goes wrong.
  25:main.c        **** uint32 code_trace_array[10] ; // Keep track of interesting but normal code events.
  26:main.c        **** 
  27:main.c        **** 
  28:main.c        **** // Table of how to point the beam.  Values determined by experiment.
  29:main.c        **** //uint32 elevation_table[30]= [2,2,3,,4,6,7...], yaw_table[30], elevation_index, yaw_index; K1 =???
  30:main.c        **** //uint32 elevation_step_count ;
  31:main.c        **** 
ARM GAS  C:\Users\rohi2\AppData\Local\Temp\ccKb2bhd.s 			page 2


  32:main.c        **** int32 yaw_table[11] = {-10, -8, -6, -4, -2, 0, 2, 4, 6, 8, 10}, yaw_index = 0;
  33:main.c        **** 
  34:main.c        **** int32 pitch_table[11] = {5, 4, 3, 2, 1, 0, 1, 2, 3, 4, 5}, pitch_index = 0;
  35:main.c        **** 
  36:main.c        **** /* Yaw index will point to home position at the beginning, which is 5 */
  37:main.c        **** int32 prev_yaw_index = 5, prev_pitch_index = 5;
  38:main.c        **** 
  39:main.c        **** /* Steps to move */
  40:main.c        **** int32 move_steps = 0, pitch_move_steps = 0, pitch_no_of_steps = 0;
  41:main.c        **** 
  42:main.c        **** /* Count variables to keep track of the pulse width of the sensor response */
  43:main.c        **** int count = 0, count2, sensor_delay_count = 0;
  44:main.c        **** 
  45:main.c        **** /* Variables to store distances measured by the two sensors */
  46:main.c        **** float distance = 0.0, distance2;
  47:main.c        **** 
  48:main.c        **** /* Delay between the steps of the stepper motor, 
  49:main.c        ****     delay is sufficient to generate enough track for our application */
  50:main.c        **** uint16 delay = 20000;
  51:main.c        **** 
  52:main.c        **** /* Keep track of the sum and differences between the distances tracked by the two sensors */
  53:main.c        **** int sum, difference;
  54:main.c        **** int hall_count = 0;
  55:main.c        **** 
  56:main.c        **** /* Flags to keep track of motor movement */
  57:main.c        **** uint16 ccw_flag = 0, cw_flag = 0;
  58:main.c        **** 
  59:main.c        **** /* Variable to keep track of no of steps that the stepper motor should rotate */
  60:main.c        **** int16 no_of_steps = 10;
  61:main.c        **** 
  62:main.c        **** /* Loop variable */
  63:main.c        **** int i;
  64:main.c        **** 
  65:main.c        **** /* Variables to store previous valid value of distances */
  66:main.c        **** float prev_distance = 0.0, prev_distance2;
  67:main.c        **** 
  68:main.c        **** /* A flag to indicate when the magnet is detected by the Hall Sensor */
  69:main.c        **** uint8 hall_sensor_flag = 0;
  70:main.c        **** uint8 pitch_limit = 10;
  71:main.c        **** 
  72:main.c        **** char lcd_string[9];
  73:main.c        **** 
  74:main.c        **** /* Yaw motor movement */
  75:main.c        **** void step1() 
  76:main.c        **** {
  77:main.c        ****     Pin_A1_Write(0);
  78:main.c        ****     Pin_A2_Write(1);
  79:main.c        ****     Pin_B1_Write(1);
  80:main.c        ****     Pin_B2_Write(0);
  81:main.c        **** }
  82:main.c        **** 
  83:main.c        **** void step2() 
  84:main.c        **** {
  85:main.c        ****     Pin_A1_Write(0);
  86:main.c        ****     Pin_A2_Write(1);
  87:main.c        ****     Pin_B1_Write(0);
  88:main.c        ****     Pin_B2_Write(1);
ARM GAS  C:\Users\rohi2\AppData\Local\Temp\ccKb2bhd.s 			page 3


  89:main.c        **** }
  90:main.c        **** 
  91:main.c        **** void step3() 
  92:main.c        **** {
  93:main.c        ****     Pin_A1_Write(1);
  94:main.c        ****     Pin_A2_Write(0);
  95:main.c        ****     Pin_B1_Write(0);
  96:main.c        ****     Pin_B2_Write(1);
  97:main.c        **** }
  98:main.c        **** void step4() 
  99:main.c        **** {
 100:main.c        ****     Pin_A1_Write(1);
 101:main.c        ****     Pin_A2_Write(0);
 102:main.c        ****     Pin_B1_Write(1);
 103:main.c        ****     Pin_B2_Write(0);
 104:main.c        **** }
 105:main.c        **** 
 106:main.c        **** /* Pitch motor movement */
 107:main.c        **** void step1_1() 
 108:main.c        **** {
 109:main.c        ****     Pin_A1_1_Write(0);
 110:main.c        ****     Pin_A2_1_Write(1);
 111:main.c        ****     Pin_B1_1_Write(1);
 112:main.c        ****     Pin_B2_1_Write(0);
 113:main.c        **** }
 114:main.c        **** 
 115:main.c        **** void step2_1() 
 116:main.c        **** {
 117:main.c        ****     Pin_A1_1_Write(0);
 118:main.c        ****     Pin_A2_1_Write(1);
 119:main.c        ****     Pin_B1_1_Write(0);
 120:main.c        ****     Pin_B2_1_Write(1);
 121:main.c        **** }
 122:main.c        **** 
 123:main.c        **** void step3_1() 
 124:main.c        **** {
 125:main.c        ****     Pin_A1_1_Write(1);
 126:main.c        ****     Pin_A2_1_Write(0);
 127:main.c        ****     Pin_B1_1_Write(0);
 128:main.c        ****     Pin_B2_1_Write(1);
 129:main.c        **** }
 130:main.c        **** void step4_1() 
 131:main.c        **** {
 132:main.c        ****     Pin_A1_1_Write(1);
 133:main.c        ****     Pin_A2_1_Write(0);
 134:main.c        ****     Pin_B1_1_Write(1);
 135:main.c        ****     Pin_B2_1_Write(0);
 136:main.c        **** }
 137:main.c        **** 
 138:main.c        **** 
 139:main.c        **** /* Pitch */
 140:main.c        **** void stopMotor_1() 
 141:main.c        **** {
 142:main.c        ****     Pin_A1_1_Write(0);
 143:main.c        ****     Pin_A2_1_Write(0);
 144:main.c        ****     Pin_B1_1_Write(0);
 145:main.c        ****     Pin_B2_1_Write(0);
ARM GAS  C:\Users\rohi2\AppData\Local\Temp\ccKb2bhd.s 			page 4


 146:main.c        ****     CyDelay(25);
 147:main.c        **** }
 148:main.c        **** 
 149:main.c        **** /* Yaw */
 150:main.c        **** void stopMotor() 
 151:main.c        **** {
 152:main.c        ****     Pin_A1_Write(0);
 153:main.c        ****     Pin_A2_Write(0);
 154:main.c        ****     Pin_B1_Write(0);
 155:main.c        ****     Pin_B2_Write(0);
 156:main.c        ****     CyDelay(25);
 157:main.c        **** }
 158:main.c        **** 
 159:main.c        **** // Motor "1" is the pitch (up or down) motor.
 160:main.c        **** void clockwise_1()
 161:main.c        **** {
 162:main.c        ****     step1_1(); 
 163:main.c        ****     CyDelayUs(delay);
 164:main.c        ****     step2_1();
 165:main.c        ****     CyDelayUs(delay);
 166:main.c        ****     step3_1();
 167:main.c        ****     CyDelayUs(delay);
 168:main.c        ****     step4_1();
 169:main.c        ****     CyDelayUs(delay);
 170:main.c        **** }
 171:main.c        **** 
 172:main.c        **** // Yaw motor motion.
 173:main.c        **** void clockwise()
 174:main.c        **** {
 175:main.c        ****     step1(); 
 176:main.c        ****     CyDelayUs(delay);
 177:main.c        ****     step2();
 178:main.c        ****     CyDelayUs(delay);
 179:main.c        ****     step3();
 180:main.c        ****     CyDelayUs(delay);
 181:main.c        ****     step4();
 182:main.c        ****     CyDelayUs(delay);
 183:main.c        **** }
 184:main.c        **** 
 185:main.c        **** void counter_clockwise_1()
 186:main.c        **** {
 187:main.c        ****     step3_1();
 188:main.c        ****     CyDelayUs(delay);
 189:main.c        ****     step2_1();
 190:main.c        ****     CyDelayUs(delay);
 191:main.c        ****     step1_1();
 192:main.c        ****     CyDelayUs(delay);
 193:main.c        ****     step4_1();
 194:main.c        ****     CyDelayUs(delay);
 195:main.c        **** }
 196:main.c        **** 
 197:main.c        **** void counter_clockwise()
 198:main.c        **** {
 199:main.c        ****     step3();
 200:main.c        ****     CyDelayUs(delay);
 201:main.c        ****     step2();
 202:main.c        ****     CyDelayUs(delay);
ARM GAS  C:\Users\rohi2\AppData\Local\Temp\ccKb2bhd.s 			page 5


 203:main.c        ****     step1();
 204:main.c        ****     CyDelayUs(delay);
 205:main.c        ****     step4();
 206:main.c        ****     CyDelayUs(delay);
 207:main.c        **** }
 208:main.c        **** 
 209:main.c        **** 
 210:main.c        **** /* ISR to detect home position of flash light */
 211:main.c        **** CY_ISR(HALL_SENSOR)
 212:main.c        **** {
  27              		.loc 1 212 0
  28              		.cfi_startproc
  29              		@ args = 0, pretend = 0, frame = 0
  30              		@ frame_needed = 0, uses_anonymous_args = 0
  31              		@ link register save eliminated.
 213:main.c        ****     hall_sensor_flag = 1;
  32              		.loc 1 213 0
  33 0000 034B     		ldr	r3, .L2
  34 0002 0122     		movs	r2, #1
  35 0004 1A70     		strb	r2, [r3]
 214:main.c        ****     hall_count++;
  36              		.loc 1 214 0
  37 0006 5A68     		ldr	r2, [r3, #4]
  38 0008 0132     		adds	r2, r2, #1
  39 000a 5A60     		str	r2, [r3, #4]
  40 000c 7047     		bx	lr
  41              	.L3:
  42 000e 00BF     		.align	2
  43              	.L2:
  44 0010 00000000 		.word	.LANCHOR0
  45              		.cfi_endproc
  46              	.LFE77:
  47              		.size	HALL_SENSOR, .-HALL_SENSOR
  48              		.section	.text.RISING_EDGE_1,"ax",%progbits
  49              		.align	2
  50              		.global	RISING_EDGE_1
  51              		.thumb
  52              		.thumb_func
  53              		.type	RISING_EDGE_1, %function
  54              	RISING_EDGE_1:
  55              	.LFB78:
 215:main.c        **** }
 216:main.c        **** 
 217:main.c        **** //Interrupt to Start counter1 for ultrasonic sensor1
 218:main.c        **** //This interrupt is triggered at the rising edge of the pulse response received from the ultrasonic
 219:main.c        **** CY_ISR(RISING_EDGE_1)
 220:main.c        **** {
  56              		.loc 1 220 0
  57              		.cfi_startproc
  58              		@ args = 0, pretend = 0, frame = 0
  59              		@ frame_needed = 0, uses_anonymous_args = 0
  60 0000 08B5     		push	{r3, lr}
  61              		.cfi_def_cfa_offset 8
  62              		.cfi_offset 3, -8
  63              		.cfi_offset 14, -4
 221:main.c        ****     /* The echo pin of the ISR sends back a pulse proportional to the distnce */
 222:main.c        ****     /* Use a counter to measure the pulse width, Distance can be derived from this pulse width */
ARM GAS  C:\Users\rohi2\AppData\Local\Temp\ccKb2bhd.s 			page 6


 223:main.c        ****     Counter_1_Start();
  64              		.loc 1 223 0
  65 0002 FFF7FEFF 		bl	Counter_1_Start
  66              	.LVL0:
  67 0006 08BD     		pop	{r3, pc}
  68              		.cfi_endproc
  69              	.LFE78:
  70              		.size	RISING_EDGE_1, .-RISING_EDGE_1
  71              		.global	__aeabi_i2d
  72              		.global	__aeabi_ddiv
  73              		.global	__aeabi_d2f
  74              		.global	__aeabi_fcmplt
  75              		.global	__aeabi_fcmpgt
  76              		.global	__aeabi_f2uiz
  77              		.section	.text.FALLING_EDGE_1,"ax",%progbits
  78              		.align	2
  79              		.global	FALLING_EDGE_1
  80              		.thumb
  81              		.thumb_func
  82              		.type	FALLING_EDGE_1, %function
  83              	FALLING_EDGE_1:
  84              	.LFB79:
 224:main.c        **** }
 225:main.c        **** 
 226:main.c        **** //Interrupt to Stop counter1 for ultrasonic 1
 227:main.c        **** CY_ISR(FALLING_EDGE_1)
 228:main.c        **** {
  85              		.loc 1 228 0
  86              		.cfi_startproc
  87              		@ args = 0, pretend = 0, frame = 0
  88              		@ frame_needed = 0, uses_anonymous_args = 0
  89 0000 38B5     		push	{r3, r4, r5, lr}
  90              		.cfi_def_cfa_offset 16
  91              		.cfi_offset 3, -16
  92              		.cfi_offset 4, -12
  93              		.cfi_offset 5, -8
  94              		.cfi_offset 14, -4
 229:main.c        ****     /* Stop the counter, read its content, which indirectly translates to the pulse width */
 230:main.c        ****     /* Distance information can be obtained from the pulse width */
 231:main.c        ****     Counter_1_Stop();
  95              		.loc 1 231 0
  96 0002 FFF7FEFF 		bl	Counter_1_Stop
  97              	.LVL1:
 232:main.c        ****     count = Counter_1_ReadCounter();
  98              		.loc 1 232 0
  99 0006 FFF7FEFF 		bl	Counter_1_ReadCounter
 100              	.LVL2:
 101 000a 1A4C     		ldr	r4, .L14
 102 000c A060     		str	r0, [r4, #8]
 233:main.c        ****     Counter_1_WriteCounter(0);
 103              		.loc 1 233 0
 104 000e 0020     		movs	r0, #0
 105 0010 FFF7FEFF 		bl	Counter_1_WriteCounter
 106              	.LVL3:
 234:main.c        ****     
 235:main.c        ****     /* Convert the pulse width to distance in cm */
 236:main.c        ****     distance = (float)(count / 10.0);
ARM GAS  C:\Users\rohi2\AppData\Local\Temp\ccKb2bhd.s 			page 7


 107              		.loc 1 236 0
 108 0014 A068     		ldr	r0, [r4, #8]
 109 0016 FFF7FEFF 		bl	__aeabi_i2d
 110              	.LVL4:
 111 001a 0022     		movs	r2, #0
 112 001c 164B     		ldr	r3, .L14+4
 113 001e FFF7FEFF 		bl	__aeabi_ddiv
 114              	.LVL5:
 115 0022 FFF7FEFF 		bl	__aeabi_d2f
 116              	.LVL6:
 117 0026 0546     		mov	r5, r0
 118 0028 E060     		str	r0, [r4, #12]	@ float
 237:main.c        ****     
 238:main.c        ****     /* Simple filtering to ignore rouge values */
 239:main.c        ****     if ((distance < 150) &&(distance > 30))
 119              		.loc 1 239 0
 120 002a 1449     		ldr	r1, .L14+8
 121 002c FFF7FEFF 		bl	__aeabi_fcmplt
 122              	.LVL7:
 123 0030 30B1     		cbz	r0, .L7
 124              		.loc 1 239 0 is_stmt 0 discriminator 1
 125 0032 2846     		mov	r0, r5
 126 0034 1249     		ldr	r1, .L14+12
 127 0036 FFF7FEFF 		bl	__aeabi_fcmpgt
 128              	.LVL8:
 129 003a 08B1     		cbz	r0, .L7
 240:main.c        ****     {
 241:main.c        ****         prev_distance = distance;
 130              		.loc 1 241 0 is_stmt 1
 131 003c 2561     		str	r5, [r4, #16]	@ float
 132 003e 06E0     		b	.L10
 133              	.L7:
 242:main.c        ****         //good_dx_count++ ;
 243:main.c        ****     }
 244:main.c        ****     
 245:main.c        ****     else
 246:main.c        ****     {
 247:main.c        ****         distance =  prev_distance; 
 134              		.loc 1 247 0
 135 0040 0C4B     		ldr	r3, .L14
 136 0042 1A69     		ldr	r2, [r3, #16]	@ float
 137 0044 DA60     		str	r2, [r3, #12]	@ float
 248:main.c        ****         bad_dx_count++;
 138              		.loc 1 248 0
 139 0046 0F4A     		ldr	r2, .L14+16
 140 0048 1368     		ldr	r3, [r2]
 141 004a 0133     		adds	r3, r3, #1
 142 004c 1360     		str	r3, [r2]
 143              	.L10:
 249:main.c        ****     }
 250:main.c        ****     
 251:main.c        ****     // Keep track of often wehave bad counts.
 252:main.c        ****     //percent_good_counts = 100. * (float)good_dx_count / (float)bad_dx_count  ;
 253:main.c        ****     
 254:main.c        ****     /* Print the distances on the LCD */
 255:main.c        ****     LCD_Position(0, 1);
 144              		.loc 1 255 0
ARM GAS  C:\Users\rohi2\AppData\Local\Temp\ccKb2bhd.s 			page 8


 145 004e 0020     		movs	r0, #0
 146 0050 0121     		movs	r1, #1
 147 0052 FFF7FEFF 		bl	LCD_Position
 148              	.LVL9:
 256:main.c        ****     LCD_PrintString("    ");
 149              		.loc 1 256 0
 150 0056 0C48     		ldr	r0, .L14+20
 151 0058 FFF7FEFF 		bl	LCD_PrintString
 152              	.LVL10:
 257:main.c        ****     LCD_Position(0, 1);
 153              		.loc 1 257 0
 154 005c 0020     		movs	r0, #0
 155 005e 0121     		movs	r1, #1
 156 0060 FFF7FEFF 		bl	LCD_Position
 157              	.LVL11:
 258:main.c        ****     LCD_PrintU32Number(distance);
 158              		.loc 1 258 0
 159 0064 034B     		ldr	r3, .L14
 160 0066 D868     		ldr	r0, [r3, #12]	@ float
 161 0068 FFF7FEFF 		bl	__aeabi_f2uiz
 162              	.LVL12:
 163 006c FFF7FEFF 		bl	LCD_PrintU32Number
 164              	.LVL13:
 165 0070 38BD     		pop	{r3, r4, r5, pc}
 166              	.L15:
 167 0072 00BF     		.align	2
 168              	.L14:
 169 0074 00000000 		.word	.LANCHOR0
 170 0078 00002440 		.word	1076101120
 171 007c 00001643 		.word	1125515264
 172 0080 0000F041 		.word	1106247680
 173 0084 00000000 		.word	bad_dx_count
 174 0088 00000000 		.word	.LC0
 175              		.cfi_endproc
 176              	.LFE79:
 177              		.size	FALLING_EDGE_1, .-FALLING_EDGE_1
 178              		.section	.text.RISING_EDGE_2,"ax",%progbits
 179              		.align	2
 180              		.global	RISING_EDGE_2
 181              		.thumb
 182              		.thumb_func
 183              		.type	RISING_EDGE_2, %function
 184              	RISING_EDGE_2:
 185              	.LFB80:
 259:main.c        **** }
 260:main.c        **** 
 261:main.c        **** //Interrupt to Stop counter2 for ultrasonic sensor2
 262:main.c        **** //This interrupt is triggered at the rising edge of the pulse response received from the ultrasonic
 263:main.c        **** CY_ISR(RISING_EDGE_2)
 264:main.c        **** {
 186              		.loc 1 264 0
 187              		.cfi_startproc
 188              		@ args = 0, pretend = 0, frame = 0
 189              		@ frame_needed = 0, uses_anonymous_args = 0
 190 0000 08B5     		push	{r3, lr}
 191              		.cfi_def_cfa_offset 8
 192              		.cfi_offset 3, -8
ARM GAS  C:\Users\rohi2\AppData\Local\Temp\ccKb2bhd.s 			page 9


 193              		.cfi_offset 14, -4
 265:main.c        ****     /* The echo pin of the ISR sends back a pulse proportional to the distnce */
 266:main.c        ****     /* Use a counter to measure the pulse width, Distance can be derived from this pulse width */
 267:main.c        ****     Counter_2_Start();
 194              		.loc 1 267 0
 195 0002 FFF7FEFF 		bl	Counter_2_Start
 196              	.LVL14:
 197 0006 08BD     		pop	{r3, pc}
 198              		.cfi_endproc
 199              	.LFE80:
 200              		.size	RISING_EDGE_2, .-RISING_EDGE_2
 201              		.section	.text.step1,"ax",%progbits
 202              		.align	2
 203              		.global	step1
 204              		.thumb
 205              		.thumb_func
 206              		.type	step1, %function
 207              	step1:
 208              	.LFB63:
  76:main.c        ****     Pin_A1_Write(0);
 209              		.loc 1 76 0
 210              		.cfi_startproc
 211              		@ args = 0, pretend = 0, frame = 0
 212              		@ frame_needed = 0, uses_anonymous_args = 0
 213 0000 08B5     		push	{r3, lr}
 214              		.cfi_def_cfa_offset 8
 215              		.cfi_offset 3, -8
 216              		.cfi_offset 14, -4
  77:main.c        ****     Pin_A2_Write(1);
 217              		.loc 1 77 0
 218 0002 0020     		movs	r0, #0
 219 0004 FFF7FEFF 		bl	Pin_A1_Write
 220              	.LVL15:
  78:main.c        ****     Pin_B1_Write(1);
 221              		.loc 1 78 0
 222 0008 0120     		movs	r0, #1
 223 000a FFF7FEFF 		bl	Pin_A2_Write
 224              	.LVL16:
  79:main.c        ****     Pin_B2_Write(0);
 225              		.loc 1 79 0
 226 000e 0120     		movs	r0, #1
 227 0010 FFF7FEFF 		bl	Pin_B1_Write
 228              	.LVL17:
  80:main.c        **** }
 229              		.loc 1 80 0
 230 0014 0020     		movs	r0, #0
 231 0016 FFF7FEFF 		bl	Pin_B2_Write
 232              	.LVL18:
 233 001a 08BD     		pop	{r3, pc}
 234              		.cfi_endproc
 235              	.LFE63:
 236              		.size	step1, .-step1
 237              		.section	.text.step2,"ax",%progbits
 238              		.align	2
 239              		.global	step2
 240              		.thumb
 241              		.thumb_func
ARM GAS  C:\Users\rohi2\AppData\Local\Temp\ccKb2bhd.s 			page 10


 242              		.type	step2, %function
 243              	step2:
 244              	.LFB64:
  84:main.c        ****     Pin_A1_Write(0);
 245              		.loc 1 84 0
 246              		.cfi_startproc
 247              		@ args = 0, pretend = 0, frame = 0
 248              		@ frame_needed = 0, uses_anonymous_args = 0
 249 0000 08B5     		push	{r3, lr}
 250              		.cfi_def_cfa_offset 8
 251              		.cfi_offset 3, -8
 252              		.cfi_offset 14, -4
  85:main.c        ****     Pin_A2_Write(1);
 253              		.loc 1 85 0
 254 0002 0020     		movs	r0, #0
 255 0004 FFF7FEFF 		bl	Pin_A1_Write
 256              	.LVL19:
  86:main.c        ****     Pin_B1_Write(0);
 257              		.loc 1 86 0
 258 0008 0120     		movs	r0, #1
 259 000a FFF7FEFF 		bl	Pin_A2_Write
 260              	.LVL20:
  87:main.c        ****     Pin_B2_Write(1);
 261              		.loc 1 87 0
 262 000e 0020     		movs	r0, #0
 263 0010 FFF7FEFF 		bl	Pin_B1_Write
 264              	.LVL21:
  88:main.c        **** }
 265              		.loc 1 88 0
 266 0014 0120     		movs	r0, #1
 267 0016 FFF7FEFF 		bl	Pin_B2_Write
 268              	.LVL22:
 269 001a 08BD     		pop	{r3, pc}
 270              		.cfi_endproc
 271              	.LFE64:
 272              		.size	step2, .-step2
 273              		.section	.text.step3,"ax",%progbits
 274              		.align	2
 275              		.global	step3
 276              		.thumb
 277              		.thumb_func
 278              		.type	step3, %function
 279              	step3:
 280              	.LFB65:
  92:main.c        ****     Pin_A1_Write(1);
 281              		.loc 1 92 0
 282              		.cfi_startproc
 283              		@ args = 0, pretend = 0, frame = 0
 284              		@ frame_needed = 0, uses_anonymous_args = 0
 285 0000 08B5     		push	{r3, lr}
 286              		.cfi_def_cfa_offset 8
 287              		.cfi_offset 3, -8
 288              		.cfi_offset 14, -4
  93:main.c        ****     Pin_A2_Write(0);
 289              		.loc 1 93 0
 290 0002 0120     		movs	r0, #1
 291 0004 FFF7FEFF 		bl	Pin_A1_Write
ARM GAS  C:\Users\rohi2\AppData\Local\Temp\ccKb2bhd.s 			page 11


 292              	.LVL23:
  94:main.c        ****     Pin_B1_Write(0);
 293              		.loc 1 94 0
 294 0008 0020     		movs	r0, #0
 295 000a FFF7FEFF 		bl	Pin_A2_Write
 296              	.LVL24:
  95:main.c        ****     Pin_B2_Write(1);
 297              		.loc 1 95 0
 298 000e 0020     		movs	r0, #0
 299 0010 FFF7FEFF 		bl	Pin_B1_Write
 300              	.LVL25:
  96:main.c        **** }
 301              		.loc 1 96 0
 302 0014 0120     		movs	r0, #1
 303 0016 FFF7FEFF 		bl	Pin_B2_Write
 304              	.LVL26:
 305 001a 08BD     		pop	{r3, pc}
 306              		.cfi_endproc
 307              	.LFE65:
 308              		.size	step3, .-step3
 309              		.section	.text.step4,"ax",%progbits
 310              		.align	2
 311              		.global	step4
 312              		.thumb
 313              		.thumb_func
 314              		.type	step4, %function
 315              	step4:
 316              	.LFB66:
  99:main.c        ****     Pin_A1_Write(1);
 317              		.loc 1 99 0
 318              		.cfi_startproc
 319              		@ args = 0, pretend = 0, frame = 0
 320              		@ frame_needed = 0, uses_anonymous_args = 0
 321 0000 08B5     		push	{r3, lr}
 322              		.cfi_def_cfa_offset 8
 323              		.cfi_offset 3, -8
 324              		.cfi_offset 14, -4
 100:main.c        ****     Pin_A2_Write(0);
 325              		.loc 1 100 0
 326 0002 0120     		movs	r0, #1
 327 0004 FFF7FEFF 		bl	Pin_A1_Write
 328              	.LVL27:
 101:main.c        ****     Pin_B1_Write(1);
 329              		.loc 1 101 0
 330 0008 0020     		movs	r0, #0
 331 000a FFF7FEFF 		bl	Pin_A2_Write
 332              	.LVL28:
 102:main.c        ****     Pin_B2_Write(0);
 333              		.loc 1 102 0
 334 000e 0120     		movs	r0, #1
 335 0010 FFF7FEFF 		bl	Pin_B1_Write
 336              	.LVL29:
 103:main.c        **** }
 337              		.loc 1 103 0
 338 0014 0020     		movs	r0, #0
 339 0016 FFF7FEFF 		bl	Pin_B2_Write
 340              	.LVL30:
ARM GAS  C:\Users\rohi2\AppData\Local\Temp\ccKb2bhd.s 			page 12


 341 001a 08BD     		pop	{r3, pc}
 342              		.cfi_endproc
 343              	.LFE66:
 344              		.size	step4, .-step4
 345              		.section	.text.step1_1,"ax",%progbits
 346              		.align	2
 347              		.global	step1_1
 348              		.thumb
 349              		.thumb_func
 350              		.type	step1_1, %function
 351              	step1_1:
 352              	.LFB67:
 108:main.c        ****     Pin_A1_1_Write(0);
 353              		.loc 1 108 0
 354              		.cfi_startproc
 355              		@ args = 0, pretend = 0, frame = 0
 356              		@ frame_needed = 0, uses_anonymous_args = 0
 357 0000 08B5     		push	{r3, lr}
 358              		.cfi_def_cfa_offset 8
 359              		.cfi_offset 3, -8
 360              		.cfi_offset 14, -4
 109:main.c        ****     Pin_A2_1_Write(1);
 361              		.loc 1 109 0
 362 0002 0020     		movs	r0, #0
 363 0004 FFF7FEFF 		bl	Pin_A1_1_Write
 364              	.LVL31:
 110:main.c        ****     Pin_B1_1_Write(1);
 365              		.loc 1 110 0
 366 0008 0120     		movs	r0, #1
 367 000a FFF7FEFF 		bl	Pin_A2_1_Write
 368              	.LVL32:
 111:main.c        ****     Pin_B2_1_Write(0);
 369              		.loc 1 111 0
 370 000e 0120     		movs	r0, #1
 371 0010 FFF7FEFF 		bl	Pin_B1_1_Write
 372              	.LVL33:
 112:main.c        **** }
 373              		.loc 1 112 0
 374 0014 0020     		movs	r0, #0
 375 0016 FFF7FEFF 		bl	Pin_B2_1_Write
 376              	.LVL34:
 377 001a 08BD     		pop	{r3, pc}
 378              		.cfi_endproc
 379              	.LFE67:
 380              		.size	step1_1, .-step1_1
 381              		.section	.text.step2_1,"ax",%progbits
 382              		.align	2
 383              		.global	step2_1
 384              		.thumb
 385              		.thumb_func
 386              		.type	step2_1, %function
 387              	step2_1:
 388              	.LFB68:
 116:main.c        ****     Pin_A1_1_Write(0);
 389              		.loc 1 116 0
 390              		.cfi_startproc
 391              		@ args = 0, pretend = 0, frame = 0
ARM GAS  C:\Users\rohi2\AppData\Local\Temp\ccKb2bhd.s 			page 13


 392              		@ frame_needed = 0, uses_anonymous_args = 0
 393 0000 08B5     		push	{r3, lr}
 394              		.cfi_def_cfa_offset 8
 395              		.cfi_offset 3, -8
 396              		.cfi_offset 14, -4
 117:main.c        ****     Pin_A2_1_Write(1);
 397              		.loc 1 117 0
 398 0002 0020     		movs	r0, #0
 399 0004 FFF7FEFF 		bl	Pin_A1_1_Write
 400              	.LVL35:
 118:main.c        ****     Pin_B1_1_Write(0);
 401              		.loc 1 118 0
 402 0008 0120     		movs	r0, #1
 403 000a FFF7FEFF 		bl	Pin_A2_1_Write
 404              	.LVL36:
 119:main.c        ****     Pin_B2_1_Write(1);
 405              		.loc 1 119 0
 406 000e 0020     		movs	r0, #0
 407 0010 FFF7FEFF 		bl	Pin_B1_1_Write
 408              	.LVL37:
 120:main.c        **** }
 409              		.loc 1 120 0
 410 0014 0120     		movs	r0, #1
 411 0016 FFF7FEFF 		bl	Pin_B2_1_Write
 412              	.LVL38:
 413 001a 08BD     		pop	{r3, pc}
 414              		.cfi_endproc
 415              	.LFE68:
 416              		.size	step2_1, .-step2_1
 417              		.section	.text.step3_1,"ax",%progbits
 418              		.align	2
 419              		.global	step3_1
 420              		.thumb
 421              		.thumb_func
 422              		.type	step3_1, %function
 423              	step3_1:
 424              	.LFB69:
 124:main.c        ****     Pin_A1_1_Write(1);
 425              		.loc 1 124 0
 426              		.cfi_startproc
 427              		@ args = 0, pretend = 0, frame = 0
 428              		@ frame_needed = 0, uses_anonymous_args = 0
 429 0000 08B5     		push	{r3, lr}
 430              		.cfi_def_cfa_offset 8
 431              		.cfi_offset 3, -8
 432              		.cfi_offset 14, -4
 125:main.c        ****     Pin_A2_1_Write(0);
 433              		.loc 1 125 0
 434 0002 0120     		movs	r0, #1
 435 0004 FFF7FEFF 		bl	Pin_A1_1_Write
 436              	.LVL39:
 126:main.c        ****     Pin_B1_1_Write(0);
 437              		.loc 1 126 0
 438 0008 0020     		movs	r0, #0
 439 000a FFF7FEFF 		bl	Pin_A2_1_Write
 440              	.LVL40:
 127:main.c        ****     Pin_B2_1_Write(1);
ARM GAS  C:\Users\rohi2\AppData\Local\Temp\ccKb2bhd.s 			page 14


 441              		.loc 1 127 0
 442 000e 0020     		movs	r0, #0
 443 0010 FFF7FEFF 		bl	Pin_B1_1_Write
 444              	.LVL41:
 128:main.c        **** }
 445              		.loc 1 128 0
 446 0014 0120     		movs	r0, #1
 447 0016 FFF7FEFF 		bl	Pin_B2_1_Write
 448              	.LVL42:
 449 001a 08BD     		pop	{r3, pc}
 450              		.cfi_endproc
 451              	.LFE69:
 452              		.size	step3_1, .-step3_1
 453              		.section	.text.step4_1,"ax",%progbits
 454              		.align	2
 455              		.global	step4_1
 456              		.thumb
 457              		.thumb_func
 458              		.type	step4_1, %function
 459              	step4_1:
 460              	.LFB70:
 131:main.c        ****     Pin_A1_1_Write(1);
 461              		.loc 1 131 0
 462              		.cfi_startproc
 463              		@ args = 0, pretend = 0, frame = 0
 464              		@ frame_needed = 0, uses_anonymous_args = 0
 465 0000 08B5     		push	{r3, lr}
 466              		.cfi_def_cfa_offset 8
 467              		.cfi_offset 3, -8
 468              		.cfi_offset 14, -4
 132:main.c        ****     Pin_A2_1_Write(0);
 469              		.loc 1 132 0
 470 0002 0120     		movs	r0, #1
 471 0004 FFF7FEFF 		bl	Pin_A1_1_Write
 472              	.LVL43:
 133:main.c        ****     Pin_B1_1_Write(1);
 473              		.loc 1 133 0
 474 0008 0020     		movs	r0, #0
 475 000a FFF7FEFF 		bl	Pin_A2_1_Write
 476              	.LVL44:
 134:main.c        ****     Pin_B2_1_Write(0);
 477              		.loc 1 134 0
 478 000e 0120     		movs	r0, #1
 479 0010 FFF7FEFF 		bl	Pin_B1_1_Write
 480              	.LVL45:
 135:main.c        **** }
 481              		.loc 1 135 0
 482 0014 0020     		movs	r0, #0
 483 0016 FFF7FEFF 		bl	Pin_B2_1_Write
 484              	.LVL46:
 485 001a 08BD     		pop	{r3, pc}
 486              		.cfi_endproc
 487              	.LFE70:
 488              		.size	step4_1, .-step4_1
 489              		.section	.text.stopMotor_1,"ax",%progbits
 490              		.align	2
 491              		.global	stopMotor_1
ARM GAS  C:\Users\rohi2\AppData\Local\Temp\ccKb2bhd.s 			page 15


 492              		.thumb
 493              		.thumb_func
 494              		.type	stopMotor_1, %function
 495              	stopMotor_1:
 496              	.LFB71:
 141:main.c        ****     Pin_A1_1_Write(0);
 497              		.loc 1 141 0
 498              		.cfi_startproc
 499              		@ args = 0, pretend = 0, frame = 0
 500              		@ frame_needed = 0, uses_anonymous_args = 0
 501 0000 08B5     		push	{r3, lr}
 502              		.cfi_def_cfa_offset 8
 503              		.cfi_offset 3, -8
 504              		.cfi_offset 14, -4
 142:main.c        ****     Pin_A2_1_Write(0);
 505              		.loc 1 142 0
 506 0002 0020     		movs	r0, #0
 507 0004 FFF7FEFF 		bl	Pin_A1_1_Write
 508              	.LVL47:
 143:main.c        ****     Pin_B1_1_Write(0);
 509              		.loc 1 143 0
 510 0008 0020     		movs	r0, #0
 511 000a FFF7FEFF 		bl	Pin_A2_1_Write
 512              	.LVL48:
 144:main.c        ****     Pin_B2_1_Write(0);
 513              		.loc 1 144 0
 514 000e 0020     		movs	r0, #0
 515 0010 FFF7FEFF 		bl	Pin_B1_1_Write
 516              	.LVL49:
 145:main.c        ****     CyDelay(25);
 517              		.loc 1 145 0
 518 0014 0020     		movs	r0, #0
 519 0016 FFF7FEFF 		bl	Pin_B2_1_Write
 520              	.LVL50:
 146:main.c        **** }
 521              		.loc 1 146 0
 522 001a 1920     		movs	r0, #25
 523 001c FFF7FEFF 		bl	CyDelay
 524              	.LVL51:
 525 0020 08BD     		pop	{r3, pc}
 526              		.cfi_endproc
 527              	.LFE71:
 528              		.size	stopMotor_1, .-stopMotor_1
 529 0022 00BF     		.section	.text.stopMotor,"ax",%progbits
 530              		.align	2
 531              		.global	stopMotor
 532              		.thumb
 533              		.thumb_func
 534              		.type	stopMotor, %function
 535              	stopMotor:
 536              	.LFB72:
 151:main.c        ****     Pin_A1_Write(0);
 537              		.loc 1 151 0
 538              		.cfi_startproc
 539              		@ args = 0, pretend = 0, frame = 0
 540              		@ frame_needed = 0, uses_anonymous_args = 0
 541 0000 08B5     		push	{r3, lr}
ARM GAS  C:\Users\rohi2\AppData\Local\Temp\ccKb2bhd.s 			page 16


 542              		.cfi_def_cfa_offset 8
 543              		.cfi_offset 3, -8
 544              		.cfi_offset 14, -4
 152:main.c        ****     Pin_A2_Write(0);
 545              		.loc 1 152 0
 546 0002 0020     		movs	r0, #0
 547 0004 FFF7FEFF 		bl	Pin_A1_Write
 548              	.LVL52:
 153:main.c        ****     Pin_B1_Write(0);
 549              		.loc 1 153 0
 550 0008 0020     		movs	r0, #0
 551 000a FFF7FEFF 		bl	Pin_A2_Write
 552              	.LVL53:
 154:main.c        ****     Pin_B2_Write(0);
 553              		.loc 1 154 0
 554 000e 0020     		movs	r0, #0
 555 0010 FFF7FEFF 		bl	Pin_B1_Write
 556              	.LVL54:
 155:main.c        ****     CyDelay(25);
 557              		.loc 1 155 0
 558 0014 0020     		movs	r0, #0
 559 0016 FFF7FEFF 		bl	Pin_B2_Write
 560              	.LVL55:
 156:main.c        **** }
 561              		.loc 1 156 0
 562 001a 1920     		movs	r0, #25
 563 001c FFF7FEFF 		bl	CyDelay
 564              	.LVL56:
 565 0020 08BD     		pop	{r3, pc}
 566              		.cfi_endproc
 567              	.LFE72:
 568              		.size	stopMotor, .-stopMotor
 569 0022 00BF     		.section	.text.clockwise_1,"ax",%progbits
 570              		.align	2
 571              		.global	clockwise_1
 572              		.thumb
 573              		.thumb_func
 574              		.type	clockwise_1, %function
 575              	clockwise_1:
 576              	.LFB73:
 161:main.c        ****     step1_1(); 
 577              		.loc 1 161 0
 578              		.cfi_startproc
 579              		@ args = 0, pretend = 0, frame = 0
 580              		@ frame_needed = 0, uses_anonymous_args = 0
 581 0000 10B5     		push	{r4, lr}
 582              		.cfi_def_cfa_offset 8
 583              		.cfi_offset 4, -8
 584              		.cfi_offset 14, -4
 162:main.c        ****     CyDelayUs(delay);
 585              		.loc 1 162 0
 586 0002 FFF7FEFF 		bl	step1_1
 587              	.LVL57:
 163:main.c        ****     step2_1();
 588              		.loc 1 163 0
 589 0006 0A4C     		ldr	r4, .L40
 590 0008 2088     		ldrh	r0, [r4]
ARM GAS  C:\Users\rohi2\AppData\Local\Temp\ccKb2bhd.s 			page 17


 591 000a FFF7FEFF 		bl	CyDelayUs
 592              	.LVL58:
 164:main.c        ****     CyDelayUs(delay);
 593              		.loc 1 164 0
 594 000e FFF7FEFF 		bl	step2_1
 595              	.LVL59:
 165:main.c        ****     step3_1();
 596              		.loc 1 165 0
 597 0012 2088     		ldrh	r0, [r4]
 598 0014 FFF7FEFF 		bl	CyDelayUs
 599              	.LVL60:
 166:main.c        ****     CyDelayUs(delay);
 600              		.loc 1 166 0
 601 0018 FFF7FEFF 		bl	step3_1
 602              	.LVL61:
 167:main.c        ****     step4_1();
 603              		.loc 1 167 0
 604 001c 2088     		ldrh	r0, [r4]
 605 001e FFF7FEFF 		bl	CyDelayUs
 606              	.LVL62:
 168:main.c        ****     CyDelayUs(delay);
 607              		.loc 1 168 0
 608 0022 FFF7FEFF 		bl	step4_1
 609              	.LVL63:
 169:main.c        **** }
 610              		.loc 1 169 0
 611 0026 2088     		ldrh	r0, [r4]
 612 0028 FFF7FEFF 		bl	CyDelayUs
 613              	.LVL64:
 614 002c 10BD     		pop	{r4, pc}
 615              	.L41:
 616 002e 00BF     		.align	2
 617              	.L40:
 618 0030 00000000 		.word	.LANCHOR1
 619              		.cfi_endproc
 620              	.LFE73:
 621              		.size	clockwise_1, .-clockwise_1
 622              		.section	.text.clockwise,"ax",%progbits
 623              		.align	2
 624              		.global	clockwise
 625              		.thumb
 626              		.thumb_func
 627              		.type	clockwise, %function
 628              	clockwise:
 629              	.LFB74:
 174:main.c        ****     step1(); 
 630              		.loc 1 174 0
 631              		.cfi_startproc
 632              		@ args = 0, pretend = 0, frame = 0
 633              		@ frame_needed = 0, uses_anonymous_args = 0
 634 0000 10B5     		push	{r4, lr}
 635              		.cfi_def_cfa_offset 8
 636              		.cfi_offset 4, -8
 637              		.cfi_offset 14, -4
 175:main.c        ****     CyDelayUs(delay);
 638              		.loc 1 175 0
 639 0002 FFF7FEFF 		bl	step1
ARM GAS  C:\Users\rohi2\AppData\Local\Temp\ccKb2bhd.s 			page 18


 640              	.LVL65:
 176:main.c        ****     step2();
 641              		.loc 1 176 0
 642 0006 0A4C     		ldr	r4, .L44
 643 0008 2088     		ldrh	r0, [r4]
 644 000a FFF7FEFF 		bl	CyDelayUs
 645              	.LVL66:
 177:main.c        ****     CyDelayUs(delay);
 646              		.loc 1 177 0
 647 000e FFF7FEFF 		bl	step2
 648              	.LVL67:
 178:main.c        ****     step3();
 649              		.loc 1 178 0
 650 0012 2088     		ldrh	r0, [r4]
 651 0014 FFF7FEFF 		bl	CyDelayUs
 652              	.LVL68:
 179:main.c        ****     CyDelayUs(delay);
 653              		.loc 1 179 0
 654 0018 FFF7FEFF 		bl	step3
 655              	.LVL69:
 180:main.c        ****     step4();
 656              		.loc 1 180 0
 657 001c 2088     		ldrh	r0, [r4]
 658 001e FFF7FEFF 		bl	CyDelayUs
 659              	.LVL70:
 181:main.c        ****     CyDelayUs(delay);
 660              		.loc 1 181 0
 661 0022 FFF7FEFF 		bl	step4
 662              	.LVL71:
 182:main.c        **** }
 663              		.loc 1 182 0
 664 0026 2088     		ldrh	r0, [r4]
 665 0028 FFF7FEFF 		bl	CyDelayUs
 666              	.LVL72:
 667 002c 10BD     		pop	{r4, pc}
 668              	.L45:
 669 002e 00BF     		.align	2
 670              	.L44:
 671 0030 00000000 		.word	.LANCHOR1
 672              		.cfi_endproc
 673              	.LFE74:
 674              		.size	clockwise, .-clockwise
 675              		.section	.text.counter_clockwise_1,"ax",%progbits
 676              		.align	2
 677              		.global	counter_clockwise_1
 678              		.thumb
 679              		.thumb_func
 680              		.type	counter_clockwise_1, %function
 681              	counter_clockwise_1:
 682              	.LFB75:
 186:main.c        ****     step3_1();
 683              		.loc 1 186 0
 684              		.cfi_startproc
 685              		@ args = 0, pretend = 0, frame = 0
 686              		@ frame_needed = 0, uses_anonymous_args = 0
 687 0000 10B5     		push	{r4, lr}
 688              		.cfi_def_cfa_offset 8
ARM GAS  C:\Users\rohi2\AppData\Local\Temp\ccKb2bhd.s 			page 19


 689              		.cfi_offset 4, -8
 690              		.cfi_offset 14, -4
 187:main.c        ****     CyDelayUs(delay);
 691              		.loc 1 187 0
 692 0002 FFF7FEFF 		bl	step3_1
 693              	.LVL73:
 188:main.c        ****     step2_1();
 694              		.loc 1 188 0
 695 0006 0A4C     		ldr	r4, .L48
 696 0008 2088     		ldrh	r0, [r4]
 697 000a FFF7FEFF 		bl	CyDelayUs
 698              	.LVL74:
 189:main.c        ****     CyDelayUs(delay);
 699              		.loc 1 189 0
 700 000e FFF7FEFF 		bl	step2_1
 701              	.LVL75:
 190:main.c        ****     step1_1();
 702              		.loc 1 190 0
 703 0012 2088     		ldrh	r0, [r4]
 704 0014 FFF7FEFF 		bl	CyDelayUs
 705              	.LVL76:
 191:main.c        ****     CyDelayUs(delay);
 706              		.loc 1 191 0
 707 0018 FFF7FEFF 		bl	step1_1
 708              	.LVL77:
 192:main.c        ****     step4_1();
 709              		.loc 1 192 0
 710 001c 2088     		ldrh	r0, [r4]
 711 001e FFF7FEFF 		bl	CyDelayUs
 712              	.LVL78:
 193:main.c        ****     CyDelayUs(delay);
 713              		.loc 1 193 0
 714 0022 FFF7FEFF 		bl	step4_1
 715              	.LVL79:
 194:main.c        **** }
 716              		.loc 1 194 0
 717 0026 2088     		ldrh	r0, [r4]
 718 0028 FFF7FEFF 		bl	CyDelayUs
 719              	.LVL80:
 720 002c 10BD     		pop	{r4, pc}
 721              	.L49:
 722 002e 00BF     		.align	2
 723              	.L48:
 724 0030 00000000 		.word	.LANCHOR1
 725              		.cfi_endproc
 726              	.LFE75:
 727              		.size	counter_clockwise_1, .-counter_clockwise_1
 728              		.section	.text.counter_clockwise,"ax",%progbits
 729              		.align	2
 730              		.global	counter_clockwise
 731              		.thumb
 732              		.thumb_func
 733              		.type	counter_clockwise, %function
 734              	counter_clockwise:
 735              	.LFB76:
 198:main.c        ****     step3();
 736              		.loc 1 198 0
ARM GAS  C:\Users\rohi2\AppData\Local\Temp\ccKb2bhd.s 			page 20


 737              		.cfi_startproc
 738              		@ args = 0, pretend = 0, frame = 0
 739              		@ frame_needed = 0, uses_anonymous_args = 0
 740 0000 10B5     		push	{r4, lr}
 741              		.cfi_def_cfa_offset 8
 742              		.cfi_offset 4, -8
 743              		.cfi_offset 14, -4
 199:main.c        ****     CyDelayUs(delay);
 744              		.loc 1 199 0
 745 0002 FFF7FEFF 		bl	step3
 746              	.LVL81:
 200:main.c        ****     step2();
 747              		.loc 1 200 0
 748 0006 0A4C     		ldr	r4, .L52
 749 0008 2088     		ldrh	r0, [r4]
 750 000a FFF7FEFF 		bl	CyDelayUs
 751              	.LVL82:
 201:main.c        ****     CyDelayUs(delay);
 752              		.loc 1 201 0
 753 000e FFF7FEFF 		bl	step2
 754              	.LVL83:
 202:main.c        ****     step1();
 755              		.loc 1 202 0
 756 0012 2088     		ldrh	r0, [r4]
 757 0014 FFF7FEFF 		bl	CyDelayUs
 758              	.LVL84:
 203:main.c        ****     CyDelayUs(delay);
 759              		.loc 1 203 0
 760 0018 FFF7FEFF 		bl	step1
 761              	.LVL85:
 204:main.c        ****     step4();
 762              		.loc 1 204 0
 763 001c 2088     		ldrh	r0, [r4]
 764 001e FFF7FEFF 		bl	CyDelayUs
 765              	.LVL86:
 205:main.c        ****     CyDelayUs(delay);
 766              		.loc 1 205 0
 767 0022 FFF7FEFF 		bl	step4
 768              	.LVL87:
 206:main.c        **** }
 769              		.loc 1 206 0
 770 0026 2088     		ldrh	r0, [r4]
 771 0028 FFF7FEFF 		bl	CyDelayUs
 772              	.LVL88:
 773 002c 10BD     		pop	{r4, pc}
 774              	.L53:
 775 002e 00BF     		.align	2
 776              	.L52:
 777 0030 00000000 		.word	.LANCHOR1
 778              		.cfi_endproc
 779              	.LFE76:
 780              		.size	counter_clockwise, .-counter_clockwise
 781              		.global	__aeabi_ui2f
 782              		.global	__aeabi_fadd
 783              		.global	__aeabi_fdiv
 784              		.global	__aeabi_fmul
 785              		.global	__aeabi_fsub
ARM GAS  C:\Users\rohi2\AppData\Local\Temp\ccKb2bhd.s 			page 21


 786              		.global	__aeabi_f2iz
 787              		.section	.text.FALLING_EDGE_2,"ax",%progbits
 788              		.align	2
 789              		.global	FALLING_EDGE_2
 790              		.thumb
 791              		.thumb_func
 792              		.type	FALLING_EDGE_2, %function
 793              	FALLING_EDGE_2:
 794              	.LFB81:
 268:main.c        **** }
 269:main.c        **** 
 270:main.c        **** //Interrupt to Stop counter1 for ultrasonic 1
 271:main.c        **** CY_ISR(FALLING_EDGE_2)
 272:main.c        **** {
 795              		.loc 1 272 0
 796              		.cfi_startproc
 797              		@ args = 0, pretend = 0, frame = 0
 798              		@ frame_needed = 0, uses_anonymous_args = 0
 799 0000 38B5     		push	{r3, r4, r5, lr}
 800              		.cfi_def_cfa_offset 16
 801              		.cfi_offset 3, -16
 802              		.cfi_offset 4, -12
 803              		.cfi_offset 5, -8
 804              		.cfi_offset 14, -4
 273:main.c        ****     /* Stop the counter, read its content, which indirectly translates to the pulse width */
 274:main.c        ****     /* Distance information can be obtained from the pulse width */
 275:main.c        ****     Counter_2_Stop();
 805              		.loc 1 275 0
 806 0002 FFF7FEFF 		bl	Counter_2_Stop
 807              	.LVL89:
 276:main.c        ****     count2 = Counter_2_ReadCounter();
 808              		.loc 1 276 0
 809 0006 FFF7FEFF 		bl	Counter_2_ReadCounter
 810              	.LVL90:
 811 000a 804C     		ldr	r4, .L78
 812 000c 2060     		str	r0, [r4]
 277:main.c        ****     Counter_2_WriteCounter(0);  // Reset count to zero.
 813              		.loc 1 277 0
 814 000e 0020     		movs	r0, #0
 815 0010 FFF7FEFF 		bl	Counter_2_WriteCounter
 816              	.LVL91:
 278:main.c        ****     
 279:main.c        ****     /* Convert the pulse width to distance in cm */
 280:main.c        ****     distance2 = (float)(count2 / 10.0);
 817              		.loc 1 280 0
 818 0014 2068     		ldr	r0, [r4]
 819 0016 FFF7FEFF 		bl	__aeabi_i2d
 820              	.LVL92:
 821 001a 0022     		movs	r2, #0
 822 001c 7C4B     		ldr	r3, .L78+4
 823 001e FFF7FEFF 		bl	__aeabi_ddiv
 824              	.LVL93:
 825 0022 FFF7FEFF 		bl	__aeabi_d2f
 826              	.LVL94:
 827 0026 0446     		mov	r4, r0
 828 0028 7A4B     		ldr	r3, .L78+8
 829 002a 1860     		str	r0, [r3]	@ float
ARM GAS  C:\Users\rohi2\AppData\Local\Temp\ccKb2bhd.s 			page 22


 281:main.c        ****     
 282:main.c        ****     /* Restricting range of valid values */
 283:main.c        ****     if ((distance2 < 150) &&(distance2 > 55))
 830              		.loc 1 283 0
 831 002c 7A49     		ldr	r1, .L78+12
 832 002e FFF7FEFF 		bl	__aeabi_fcmplt
 833              	.LVL95:
 834 0032 58B1     		cbz	r0, .L55
 835              		.loc 1 283 0 is_stmt 0 discriminator 1
 836 0034 2046     		mov	r0, r4
 837 0036 7949     		ldr	r1, .L78+16
 838 0038 FFF7FEFF 		bl	__aeabi_fcmpgt
 839              	.LVL96:
 840 003c 30B1     		cbz	r0, .L55
 284:main.c        ****     {
 285:main.c        ****         prev_distance2 = distance2;  // This is a valid distance.
 841              		.loc 1 285 0 is_stmt 1
 842 003e 784B     		ldr	r3, .L78+20
 843 0040 1C60     		str	r4, [r3]	@ float
 286:main.c        ****         code_trace_array[0]++ ;
 844              		.loc 1 286 0
 845 0042 784A     		ldr	r2, .L78+24
 846 0044 1368     		ldr	r3, [r2]
 847 0046 0133     		adds	r3, r3, #1
 848 0048 1360     		str	r3, [r2]
 849 004a 07E0     		b	.L58
 850              	.L55:
 287:main.c        ****     }
 288:main.c        ****     
 289:main.c        ****     /*  Digital Filtering, We have a narrow window of valid readings
 290:main.c        ****         Beyond which we throw the signal away, and use the previous valid reading   
 291:main.c        ****     */
 292:main.c        ****     else
 293:main.c        ****     {
 294:main.c        ****         distance2 =  prev_distance2;  
 851              		.loc 1 294 0
 852 004c 744B     		ldr	r3, .L78+20
 853 004e 1A68     		ldr	r2, [r3]	@ float
 854 0050 704B     		ldr	r3, .L78+8
 855 0052 1A60     		str	r2, [r3]	@ float
 295:main.c        ****         bad_event_array[0]++ ;  // "Bad event 0" is when we find an invalid distance.
 856              		.loc 1 295 0
 857 0054 744A     		ldr	r2, .L78+28
 858 0056 1368     		ldr	r3, [r2]
 859 0058 0133     		adds	r3, r3, #1
 860 005a 1360     		str	r3, [r2]
 861              	.L58:
 296:main.c        ****     }
 297:main.c        ****     
 298:main.c        ****     // Keep track of the good distance readings in terms of % wrt bad readings
 299:main.c        ****     percent_good_counts = 100.0 * ((float)code_trace_array[0] / ((float)bad_event_array[0] + (float
 862              		.loc 1 299 0
 863 005c 724B     		ldr	r3, .L78+28
 864 005e 1868     		ldr	r0, [r3]
 865 0060 FFF7FEFF 		bl	__aeabi_ui2f
 866              	.LVL97:
 867 0064 0546     		mov	r5, r0
ARM GAS  C:\Users\rohi2\AppData\Local\Temp\ccKb2bhd.s 			page 23


 868 0066 6F4B     		ldr	r3, .L78+24
 869 0068 1868     		ldr	r0, [r3]
 870 006a FFF7FEFF 		bl	__aeabi_ui2f
 871              	.LVL98:
 872 006e 0446     		mov	r4, r0
 873 0070 2846     		mov	r0, r5
 874 0072 2146     		mov	r1, r4
 875 0074 FFF7FEFF 		bl	__aeabi_fadd
 876              	.LVL99:
 877 0078 0146     		mov	r1, r0
 878 007a 2046     		mov	r0, r4
 879 007c FFF7FEFF 		bl	__aeabi_fdiv
 880              	.LVL100:
 881 0080 6A4C     		ldr	r4, .L78+32
 882 0082 6B49     		ldr	r1, .L78+36
 883 0084 FFF7FEFF 		bl	__aeabi_fmul
 884              	.LVL101:
 885 0088 2060     		str	r0, [r4]	@ float
 300:main.c        ****     
 301:main.c        ****     // Print out the percentage_good count
 302:main.c        ****     LCD_Position(1, 8);
 886              		.loc 1 302 0
 887 008a 0120     		movs	r0, #1
 888 008c 0821     		movs	r1, #8
 889 008e FFF7FEFF 		bl	LCD_Position
 890              	.LVL102:
 303:main.c        ****     LCD_PrintString("       ");
 891              		.loc 1 303 0
 892 0092 6848     		ldr	r0, .L78+40
 893 0094 FFF7FEFF 		bl	LCD_PrintString
 894              	.LVL103:
 304:main.c        ****     LCD_Position(1, 8);
 895              		.loc 1 304 0
 896 0098 0120     		movs	r0, #1
 897 009a 0821     		movs	r1, #8
 898 009c FFF7FEFF 		bl	LCD_Position
 899              	.LVL104:
 305:main.c        ****     LCD_PrintNumber((uint32)percent_good_counts);
 900              		.loc 1 305 0
 901 00a0 2068     		ldr	r0, [r4]	@ float
 902 00a2 FFF7FEFF 		bl	__aeabi_f2uiz
 903              	.LVL105:
 904 00a6 80B2     		uxth	r0, r0
 905 00a8 FFF7FEFF 		bl	LCD_PrintU32Number
 906              	.LVL106:
 306:main.c        ****     //sprintf(lcd_string, "%d", (int)percent_good_counts);
 307:main.c        ****     //LCD_PrintString(lcd_string);
 308:main.c        ****     
 309:main.c        ****     /* Print the distances on the LCD */
 310:main.c        ****     LCD_Position(1, 1);
 907              		.loc 1 310 0
 908 00ac 0120     		movs	r0, #1
 909 00ae 0146     		mov	r1, r0
 910 00b0 FFF7FEFF 		bl	LCD_Position
 911              	.LVL107:
 311:main.c        ****     LCD_PrintString("    ");
 912              		.loc 1 311 0
ARM GAS  C:\Users\rohi2\AppData\Local\Temp\ccKb2bhd.s 			page 24


 913 00b4 6048     		ldr	r0, .L78+44
 914 00b6 FFF7FEFF 		bl	LCD_PrintString
 915              	.LVL108:
 312:main.c        ****     LCD_Position(1, 1);
 916              		.loc 1 312 0
 917 00ba 0120     		movs	r0, #1
 918 00bc 0146     		mov	r1, r0
 919 00be FFF7FEFF 		bl	LCD_Position
 920              	.LVL109:
 313:main.c        ****     LCD_PrintU32Number(distance2);
 921              		.loc 1 313 0
 922 00c2 544C     		ldr	r4, .L78+8
 923 00c4 2068     		ldr	r0, [r4]	@ float
 924 00c6 FFF7FEFF 		bl	__aeabi_f2uiz
 925              	.LVL110:
 926 00ca FFF7FEFF 		bl	LCD_PrintU32Number
 927              	.LVL111:
 314:main.c        ****     
 315:main.c        ****     #if 1
 316:main.c        ****     LCD_Position(0, 8);
 928              		.loc 1 316 0
 929 00ce 0020     		movs	r0, #0
 930 00d0 0821     		movs	r1, #8
 931 00d2 FFF7FEFF 		bl	LCD_Position
 932              	.LVL112:
 317:main.c        ****     LCD_PrintString( "D:    " );
 933              		.loc 1 317 0
 934 00d6 5948     		ldr	r0, .L78+48
 935 00d8 FFF7FEFF 		bl	LCD_PrintString
 936              	.LVL113:
 318:main.c        ****     LCD_Position(0, 10);
 937              		.loc 1 318 0
 938 00dc 0020     		movs	r0, #0
 939 00de 0A21     		movs	r1, #10
 940 00e0 FFF7FEFF 		bl	LCD_Position
 941              	.LVL114:
 319:main.c        ****     difference = distance - distance2;
 942              		.loc 1 319 0
 943 00e4 564B     		ldr	r3, .L78+52
 944 00e6 D868     		ldr	r0, [r3, #12]	@ float
 945 00e8 2168     		ldr	r1, [r4]	@ float
 946 00ea FFF7FEFF 		bl	__aeabi_fsub
 947              	.LVL115:
 948 00ee FFF7FEFF 		bl	__aeabi_f2iz
 949              	.LVL116:
 950 00f2 544B     		ldr	r3, .L78+56
 951 00f4 1860     		str	r0, [r3]
 320:main.c        ****     
 321:main.c        ****     // Determine the correct elevation...
 322:main.c        ****     //elevation_index = K1 * difference ;  // K1 is just a guess.
 323:main.c        ****  
 324:main.c        ****     // Check for the array index being out of bounds.
 325:main.c        ****     //if( elevation_index < 0 )
 326:main.c        ****       //elevation_index = 0 ;
 327:main.c        ****         
 328:main.c        ****     //if(elevation_index > 29)
 329:main.c        ****       //elevation_index = 29 ;
ARM GAS  C:\Users\rohi2\AppData\Local\Temp\ccKb2bhd.s 			page 25


 330:main.c        ****     
 331:main.c        ****     // This gives the number of steps to move the beam up.
 332:main.c        ****     //elevation_step_count = elevation_table[elevation_index] ;
 333:main.c        ****     
 334:main.c        ****     if (difference < 0)
 952              		.loc 1 334 0
 953 00f6 0028     		cmp	r0, #0
 954 00f8 09DA     		bge	.L59
 335:main.c        ****     {
 336:main.c        ****        LCD_PutChar('-');
 955              		.loc 1 336 0
 956 00fa 2D20     		movs	r0, #45
 957 00fc FFF7FEFF 		bl	LCD_PutChar
 958              	.LVL117:
 337:main.c        ****        LCD_PrintNumber(-1 * difference);  
 959              		.loc 1 337 0
 960 0100 504B     		ldr	r3, .L78+56
 961 0102 1868     		ldr	r0, [r3]
 962 0104 4042     		negs	r0, r0
 963 0106 80B2     		uxth	r0, r0
 964 0108 FFF7FEFF 		bl	LCD_PrintU32Number
 965              	.LVL118:
 966 010c 02E0     		b	.L60
 967              	.L59:
 338:main.c        ****     }
 339:main.c        ****     
 340:main.c        ****     else
 341:main.c        ****     {
 342:main.c        ****         LCD_PrintNumber(difference);
 968              		.loc 1 342 0
 969 010e 80B2     		uxth	r0, r0
 970 0110 FFF7FEFF 		bl	LCD_PrintU32Number
 971              	.LVL119:
 972              	.L60:
 343:main.c        ****     }
 344:main.c        ****     #endif
 345:main.c        ****     
 346:main.c        ****     sensor_delay_count++;
 973              		.loc 1 346 0
 974 0114 4A4A     		ldr	r2, .L78+52
 975 0116 5369     		ldr	r3, [r2, #20]
 976 0118 0133     		adds	r3, r3, #1
 977 011a 5361     		str	r3, [r2, #20]
 347:main.c        ****     
 348:main.c        ****     #if 0
 349:main.c        ****     /* Need an equation to relate the difference with the number of steps */
 350:main.c        ****     /* Detect the tilt to the left, and move the motor */
 351:main.c        ****     if ((difference > 4) && (difference < 11) && (ccw_flag == 0))
 352:main.c        ****     {
 353:main.c        ****         //difference = -1 * difference;
 354:main.c        ****         no_of_steps = 10;
 355:main.c        ****         ccw_flag = 1;
 356:main.c        ****         
 357:main.c        ****         for(i = 0; i < no_of_steps; i++)
 358:main.c        ****         {
 359:main.c        ****             counter_clockwise();
 360:main.c        ****         }
ARM GAS  C:\Users\rohi2\AppData\Local\Temp\ccKb2bhd.s 			page 26


 361:main.c        ****         
 362:main.c        ****         for (i = 0; i < pitch_limit; i++)
 363:main.c        ****         counter_clockwise_1();
 364:main.c        ****     }
 365:main.c        ****     
 366:main.c        ****     else if ((difference <= 4) && (difference > -4)  && (ccw_flag == 1))
 367:main.c        ****     {
 368:main.c        ****         #if 0
 369:main.c        ****         while (Digital_Out_P3_0_Read())
 370:main.c        ****         {
 371:main.c        ****             clockwise();   
 372:main.c        ****         }
 373:main.c        ****         
 374:main.c        ****         for (i = 0; i < 2; i++)
 375:main.c        ****             clockwise();
 376:main.c        ****             
 377:main.c        ****             stopMotor();
 378:main.c        ****         
 379:main.c        ****         
 380:main.c        ****         #else
 381:main.c        ****         
 382:main.c        ****         for (i = 0; i < pitch_limit; i++)
 383:main.c        ****         clockwise_1();
 384:main.c        ****         
 385:main.c        ****         for(i = 0; i < no_of_steps; i++)
 386:main.c        ****         {
 387:main.c        ****             clockwise();
 388:main.c        ****         }
 389:main.c        ****         ccw_flag = 0;
 390:main.c        ****         #endif
 391:main.c        ****         
 392:main.c        ****         
 393:main.c        ****     }
 394:main.c        **** //    // modify
 395:main.c        **** //    if ((difference < -4) && (difference > -9) && (cw_flag == 0))
 396:main.c        **** //    {
 397:main.c        **** //        //difference = -1 * difference;
 398:main.c        **** //        no_of_steps = 10;
 399:main.c        **** //        cw_flag = 1;
 400:main.c        **** //        
 401:main.c        **** //        for(i = 0; i < no_of_steps; i++)
 402:main.c        **** //        {
 403:main.c        **** //            clockwise();
 404:main.c        **** //        }
 405:main.c        **** //        
 406:main.c        **** //        for (i = 0; i < pitch_limit; i++)
 407:main.c        **** //        clockwise_1();
 408:main.c        **** //    }
 409:main.c        **** //    
 410:main.c        **** //    else if ((difference > -1) && (difference < 4)  && (cw_flag == 1))
 411:main.c        **** //    {
 412:main.c        **** //        #if 0
 413:main.c        **** //        while (Digital_Out_P3_0_Read())
 414:main.c        **** //        {
 415:main.c        **** //            clockwise();   
 416:main.c        **** //        }
 417:main.c        **** //        
ARM GAS  C:\Users\rohi2\AppData\Local\Temp\ccKb2bhd.s 			page 27


 418:main.c        **** //        for (i = 0; i < 2; i++)
 419:main.c        **** //            clockwise();
 420:main.c        **** //            
 421:main.c        **** //            stopMotor();
 422:main.c        **** //        
 423:main.c        **** //        
 424:main.c        **** //        #else
 425:main.c        **** //        
 426:main.c        **** //        for (i = 0; i < pitch_limit; i++)
 427:main.c        **** //        counter_clockwise_1();
 428:main.c        **** //        
 429:main.c        **** //        for(i = 0; i < no_of_steps; i++)
 430:main.c        **** //        {
 431:main.c        **** //            counter_clockwise();
 432:main.c        **** //        }
 433:main.c        **** //        cw_flag = 0;
 434:main.c        **** //        #endif
 435:main.c        **** //        
 436:main.c        **** //        
 437:main.c        **** //    }
 438:main.c        **** //    //end modify
 439:main.c        ****         #if 1
 440:main.c        ****         if ((difference < -4) && (difference > -11)&& (cw_flag == 0))
 441:main.c        ****         {
 442:main.c        ****             //difference = -1 * difference;
 443:main.c        ****             no_of_steps = 10;
 444:main.c        ****             cw_flag = 1;
 445:main.c        ****             
 446:main.c        ****             for(i = 0; i < no_of_steps; i++)
 447:main.c        ****             {
 448:main.c        ****                 clockwise();
 449:main.c        ****             }
 450:main.c        ****             
 451:main.c        ****             for (i = 0; i < pitch_limit; i++)
 452:main.c        ****             counter_clockwise_1();
 453:main.c        ****         }
 454:main.c        ****         
 455:main.c        ****         else if ((difference > -4) && (difference < 4) && (cw_flag == 1))
 456:main.c        ****         {
 457:main.c        ****             #if 0
 458:main.c        ****             while (Digital_Out_P3_0_Read())
 459:main.c        ****             {
 460:main.c        ****                 counter_clockwise();   
 461:main.c        ****             }
 462:main.c        ****             
 463:main.c        ****             //for (i = 0; i < 2; i++)
 464:main.c        ****                 counter_clockwise(); 
 465:main.c        ****                 
 466:main.c        ****                 stopMotor();
 467:main.c        ****            
 468:main.c        ****             
 469:main.c        ****             #else
 470:main.c        ****             
 471:main.c        ****             for (i = 0; i < pitch_limit; i++)
 472:main.c        ****                 clockwise_1();
 473:main.c        ****             
 474:main.c        ****             for(i = 0; i < no_of_steps; i++)
ARM GAS  C:\Users\rohi2\AppData\Local\Temp\ccKb2bhd.s 			page 28


 475:main.c        ****             {
 476:main.c        ****                 counter_clockwise();
 477:main.c        ****             }
 478:main.c        ****             cw_flag = 0;
 479:main.c        ****             #endif
 480:main.c        ****         }
 481:main.c        ****         #endif
 482:main.c        ****     //Indexing
 483:main.c        ****     
 484:main.c        ****     #else
 485:main.c        ****         
 486:main.c        ****     if ((sensor_delay_count % 4) == 0)
 978              		.loc 1 486 0
 979 011c 13F0030F 		tst	r3, #3
 980 0120 72D1     		bne	.L54
 487:main.c        ****     {
 488:main.c        ****         if (((difference >= -5) && (difference <= -1)) || ((difference >= 1) && (difference <= 5)))
 981              		.loc 1 488 0
 982 0122 484B     		ldr	r3, .L78+56
 983 0124 1B68     		ldr	r3, [r3]
 984 0126 5A1D     		adds	r2, r3, #5
 985 0128 042A     		cmp	r2, #4
 986 012a 02D9     		bls	.L62
 987              		.loc 1 488 0 is_stmt 0 discriminator 1
 988 012c 5A1E     		subs	r2, r3, #1
 989 012e 042A     		cmp	r2, #4
 990 0130 6AD8     		bhi	.L54
 991              	.L62:
 489:main.c        ****         {
 490:main.c        ****             // Pointing to the right index in the lookup table based on the difference readings
 491:main.c        ****             // Yaw lookup table
 492:main.c        ****             yaw_index = difference + 5;
 992              		.loc 1 492 0 is_stmt 1
 993 0132 581D     		adds	r0, r3, #5
 994 0134 424C     		ldr	r4, .L78+52
 995 0136 A061     		str	r0, [r4, #24]
 493:main.c        ****             no_of_steps = yaw_table[yaw_index];
 996              		.loc 1 493 0
 997 0138 434B     		ldr	r3, .L78+60
 998 013a 03EB8005 		add	r5, r3, r0, lsl #2
 999 013e A988     		ldrh	r1, [r5, #4]
 1000 0140 1986     		strh	r1, [r3, #48]	@ movhi
 494:main.c        ****             move_steps = no_of_steps - yaw_table[prev_yaw_index];
 1001              		.loc 1 494 0
 1002 0142 5A6B     		ldr	r2, [r3, #52]
 1003 0144 03EB8202 		add	r2, r3, r2, lsl #2
 1004 0148 5268     		ldr	r2, [r2, #4]
 1005 014a 09B2     		sxth	r1, r1
 1006 014c 8A1A     		subs	r2, r1, r2
 1007 014e E261     		str	r2, [r4, #28]
 495:main.c        ****             
 496:main.c        ****             // Pitch lookup table
 497:main.c        ****             pitch_index = difference + 5;
 1008              		.loc 1 497 0
 1009 0150 2062     		str	r0, [r4, #32]
 498:main.c        ****             pitch_no_of_steps = pitch_table[pitch_index];
 1010              		.loc 1 498 0
ARM GAS  C:\Users\rohi2\AppData\Local\Temp\ccKb2bhd.s 			page 29


 1011 0152 A96B     		ldr	r1, [r5, #56]
 1012 0154 6162     		str	r1, [r4, #36]
 499:main.c        ****             pitch_move_steps = pitch_no_of_steps - pitch_table[prev_pitch_index];
 1013              		.loc 1 499 0
 1014 0156 586E     		ldr	r0, [r3, #100]
 1015 0158 03EB8003 		add	r3, r3, r0, lsl #2
 1016 015c 9B6B     		ldr	r3, [r3, #56]
 1017 015e C91A     		subs	r1, r1, r3
 1018 0160 A162     		str	r1, [r4, #40]
 500:main.c        ****             
 501:main.c        ****             // clockwise
 502:main.c        ****             if (move_steps < 0)
 1019              		.loc 1 502 0
 1020 0162 002A     		cmp	r2, #0
 1021 0164 12DA     		bge	.L63
 503:main.c        ****             {
 504:main.c        ****                 move_steps = -1 * move_steps;
 1022              		.loc 1 504 0
 1023 0166 5242     		negs	r2, r2
 1024 0168 E261     		str	r2, [r4, #28]
 505:main.c        ****                 
 506:main.c        ****                 // no of steps to move is obtained from the lookup table based on index obtained 
 507:main.c        ****                 // in the previous step
 508:main.c        ****                 for (i = 0; i < move_steps; i++)
 1025              		.loc 1 508 0
 1026 016a 0022     		movs	r2, #0
 1027 016c 374B     		ldr	r3, .L78+64
 1028 016e 1A60     		str	r2, [r3]
 1029 0170 05E0     		b	.L64
 1030              	.L65:
 509:main.c        ****                 {
 510:main.c        ****                     clockwise();  
 1031              		.loc 1 510 0 discriminator 3
 1032 0172 FFF7FEFF 		bl	clockwise
 1033              	.LVL120:
 508:main.c        ****                 {
 1034              		.loc 1 508 0 discriminator 3
 1035 0176 354A     		ldr	r2, .L78+64
 1036 0178 1368     		ldr	r3, [r2]
 1037 017a 0133     		adds	r3, r3, #1
 1038 017c 1360     		str	r3, [r2]
 1039              	.L64:
 508:main.c        ****                 {
 1040              		.loc 1 508 0 is_stmt 0 discriminator 1
 1041 017e 334B     		ldr	r3, .L78+64
 1042 0180 1A68     		ldr	r2, [r3]
 1043 0182 2F4B     		ldr	r3, .L78+52
 1044 0184 DB69     		ldr	r3, [r3, #28]
 1045 0186 9A42     		cmp	r2, r3
 1046 0188 F3DB     		blt	.L65
 1047 018a 0FE0     		b	.L66
 1048              	.L63:
 511:main.c        ****                 }
 512:main.c        ****             }
 513:main.c        ****             
 514:main.c        ****             //counter_clockwise
 515:main.c        ****             else
ARM GAS  C:\Users\rohi2\AppData\Local\Temp\ccKb2bhd.s 			page 30


 516:main.c        ****             {
 517:main.c        ****                 //no of steps to move is obtained from the lookup table based on index obtained 
 518:main.c        ****                 //in the previous step
 519:main.c        ****                 for (i = 0; i < move_steps; i++)
 1049              		.loc 1 519 0 is_stmt 1
 1050 018c 0022     		movs	r2, #0
 1051 018e 2F4B     		ldr	r3, .L78+64
 1052 0190 1A60     		str	r2, [r3]
 1053 0192 05E0     		b	.L67
 1054              	.L68:
 520:main.c        ****                 {
 521:main.c        ****                     counter_clockwise();  
 1055              		.loc 1 521 0 discriminator 3
 1056 0194 FFF7FEFF 		bl	counter_clockwise
 1057              	.LVL121:
 519:main.c        ****                 {
 1058              		.loc 1 519 0 discriminator 3
 1059 0198 2C4A     		ldr	r2, .L78+64
 1060 019a 1368     		ldr	r3, [r2]
 1061 019c 0133     		adds	r3, r3, #1
 1062 019e 1360     		str	r3, [r2]
 1063              	.L67:
 519:main.c        ****                 {
 1064              		.loc 1 519 0 is_stmt 0 discriminator 1
 1065 01a0 2A4B     		ldr	r3, .L78+64
 1066 01a2 1A68     		ldr	r2, [r3]
 1067 01a4 264B     		ldr	r3, .L78+52
 1068 01a6 DB69     		ldr	r3, [r3, #28]
 1069 01a8 9A42     		cmp	r2, r3
 1070 01aa F3DB     		blt	.L68
 1071              	.L66:
 522:main.c        ****                 }  
 523:main.c        ****             }
 524:main.c        ****             
 525:main.c        ****             // Pitch motor control
 526:main.c        ****             // Moved away from home position
 527:main.c        ****             if (pitch_move_steps > 0)
 1072              		.loc 1 527 0 is_stmt 1
 1073 01ac 244B     		ldr	r3, .L78+52
 1074 01ae 9B6A     		ldr	r3, [r3, #40]
 1075 01b0 002B     		cmp	r3, #0
 1076 01b2 10DD     		ble	.L69
 528:main.c        ****             {
 529:main.c        ****                 //pitch motor has to move up
 530:main.c        ****                 for (i = 0; i < pitch_move_steps; i++)
 1077              		.loc 1 530 0
 1078 01b4 0022     		movs	r2, #0
 1079 01b6 254B     		ldr	r3, .L78+64
 1080 01b8 1A60     		str	r2, [r3]
 1081 01ba 05E0     		b	.L70
 1082              	.L71:
 531:main.c        ****                 {
 532:main.c        ****                    counter_clockwise_1(); 
 1083              		.loc 1 532 0 discriminator 3
 1084 01bc FFF7FEFF 		bl	counter_clockwise_1
 1085              	.LVL122:
 530:main.c        ****                 {
ARM GAS  C:\Users\rohi2\AppData\Local\Temp\ccKb2bhd.s 			page 31


 1086              		.loc 1 530 0 discriminator 3
 1087 01c0 224A     		ldr	r2, .L78+64
 1088 01c2 1368     		ldr	r3, [r2]
 1089 01c4 0133     		adds	r3, r3, #1
 1090 01c6 1360     		str	r3, [r2]
 1091              	.L70:
 530:main.c        ****                 {
 1092              		.loc 1 530 0 is_stmt 0 discriminator 1
 1093 01c8 204B     		ldr	r3, .L78+64
 1094 01ca 1A68     		ldr	r2, [r3]
 1095 01cc 1C4B     		ldr	r3, .L78+52
 1096 01ce 9B6A     		ldr	r3, [r3, #40]
 1097 01d0 9A42     		cmp	r2, r3
 1098 01d2 F3DB     		blt	.L71
 1099 01d4 12E0     		b	.L72
 1100              	.L69:
 533:main.c        ****                 
 534:main.c        ****                 }
 535:main.c        ****                 
 536:main.c        ****             }
 537:main.c        ****             
 538:main.c        ****             // Motor moving towards home position
 539:main.c        ****             else
 540:main.c        ****             {
 541:main.c        ****                 // Need 
 542:main.c        ****                 pitch_move_steps = -1 * pitch_move_steps;
 1101              		.loc 1 542 0 is_stmt 1
 1102 01d6 5B42     		negs	r3, r3
 1103 01d8 194A     		ldr	r2, .L78+52
 1104 01da 9362     		str	r3, [r2, #40]
 543:main.c        ****                 
 544:main.c        ****                 // pitch motor has to move down
 545:main.c        ****                 for (i = 0; i < pitch_move_steps; i++)
 1105              		.loc 1 545 0
 1106 01dc 0022     		movs	r2, #0
 1107 01de 1B4B     		ldr	r3, .L78+64
 1108 01e0 1A60     		str	r2, [r3]
 1109 01e2 05E0     		b	.L73
 1110              	.L74:
 546:main.c        ****                 {
 547:main.c        ****                    clockwise_1(); 
 1111              		.loc 1 547 0 discriminator 3
 1112 01e4 FFF7FEFF 		bl	clockwise_1
 1113              	.LVL123:
 545:main.c        ****                 {
 1114              		.loc 1 545 0 discriminator 3
 1115 01e8 184A     		ldr	r2, .L78+64
 1116 01ea 1368     		ldr	r3, [r2]
 1117 01ec 0133     		adds	r3, r3, #1
 1118 01ee 1360     		str	r3, [r2]
 1119              	.L73:
 545:main.c        ****                 {
 1120              		.loc 1 545 0 is_stmt 0 discriminator 1
 1121 01f0 164B     		ldr	r3, .L78+64
 1122 01f2 1A68     		ldr	r2, [r3]
 1123 01f4 124B     		ldr	r3, .L78+52
 1124 01f6 9B6A     		ldr	r3, [r3, #40]
ARM GAS  C:\Users\rohi2\AppData\Local\Temp\ccKb2bhd.s 			page 32


 1125 01f8 9A42     		cmp	r2, r3
 1126 01fa F3DB     		blt	.L74
 1127              	.L72:
 548:main.c        ****                 } 
 549:main.c        ****             }
 550:main.c        ****             
 551:main.c        ****             prev_pitch_index = pitch_index;
 1128              		.loc 1 551 0 is_stmt 1
 1129 01fc 124B     		ldr	r3, .L78+60
 1130 01fe 104A     		ldr	r2, .L78+52
 1131 0200 116A     		ldr	r1, [r2, #32]
 1132 0202 5966     		str	r1, [r3, #100]
 552:main.c        ****             prev_yaw_index = yaw_index;
 1133              		.loc 1 552 0
 1134 0204 9269     		ldr	r2, [r2, #24]
 1135 0206 5A63     		str	r2, [r3, #52]
 1136              	.L54:
 1137 0208 38BD     		pop	{r3, r4, r5, pc}
 1138              	.L79:
 1139 020a 00BF     		.align	2
 1140              	.L78:
 1141 020c 00000000 		.word	count2
 1142 0210 00002440 		.word	1076101120
 1143 0214 00000000 		.word	distance2
 1144 0218 00001643 		.word	1125515264
 1145 021c 00005C42 		.word	1113325568
 1146 0220 00000000 		.word	prev_distance2
 1147 0224 00000000 		.word	code_trace_array
 1148 0228 00000000 		.word	bad_event_array
 1149 022c 00000000 		.word	percent_good_counts
 1150 0230 0000C842 		.word	1120403456
 1151 0234 08000000 		.word	.LC1
 1152 0238 00000000 		.word	.LC0
 1153 023c 10000000 		.word	.LC2
 1154 0240 00000000 		.word	.LANCHOR0
 1155 0244 00000000 		.word	difference
 1156 0248 00000000 		.word	.LANCHOR1
 1157 024c 00000000 		.word	i
 1158              		.cfi_endproc
 1159              	.LFE81:
 1160              		.size	FALLING_EDGE_2, .-FALLING_EDGE_2
 1161              		.section	.text.main,"ax",%progbits
 1162              		.align	2
 1163              		.global	main
 1164              		.thumb
 1165              		.thumb_func
 1166              		.type	main, %function
 1167              	main:
 1168              	.LFB82:
 553:main.c        ****         }
 554:main.c        ****         
 555:main.c        **** //        else if ((difference >= -5) && (difference < 0))
 556:main.c        **** //        {
 557:main.c        **** //            yaw_index = difference + 5;
 558:main.c        **** //            
 559:main.c        **** //            no_of_steps = -1 * yaw_table[yaw_index];
 560:main.c        **** //            move_steps = no_of_steps - yaw_table[prev_yaw_index];
ARM GAS  C:\Users\rohi2\AppData\Local\Temp\ccKb2bhd.s 			page 33


 561:main.c        **** //            
 562:main.c        **** //            //clockwise
 563:main.c        **** //            if (move_steps < 0)
 564:main.c        **** //            {
 565:main.c        **** //                move_steps = -1 * move_steps;
 566:main.c        **** //                
 567:main.c        **** //                for (i = 0; i < move_steps; i++)
 568:main.c        **** //                {
 569:main.c        **** //                    clockwise();  
 570:main.c        **** //                }
 571:main.c        **** //            }
 572:main.c        **** //            
 573:main.c        **** ////            else if (move_steps == 0)
 574:main.c        **** ////            {
 575:main.c        **** ////                
 576:main.c        **** ////            }
 577:main.c        **** //            
 578:main.c        **** //            else if (move_steps > 0)
 579:main.c        **** //            {
 580:main.c        **** //                for (i = 0; i < move_steps; i++)
 581:main.c        **** //                {
 582:main.c        **** //                    counter_clockwise();  
 583:main.c        **** //                }  
 584:main.c        **** //            }
 585:main.c        **** //            
 586:main.c        **** //            prev_yaw_index = yaw_index; 
 587:main.c        **** //        }
 588:main.c        ****     }
 589:main.c        ****     #endif
 590:main.c        **** }
 591:main.c        **** 
 592:main.c        **** 
 593:main.c        **** 
 594:main.c        **** 
 595:main.c        **** 
 596:main.c        **** 
 597:main.c        **** /////////////////////////////////  Start of main.c  ////////////////////////////////////
 598:main.c        **** //
 599:main.c        **** int main(void)
 600:main.c        **** {
 1169              		.loc 1 600 0
 1170              		.cfi_startproc
 1171              		@ Volatile: function does not return.
 1172              		@ args = 0, pretend = 0, frame = 0
 1173              		@ frame_needed = 0, uses_anonymous_args = 0
 1174 0000 08B5     		push	{r3, lr}
 1175              		.cfi_def_cfa_offset 8
 1176              		.cfi_offset 3, -8
 1177              		.cfi_offset 14, -4
 601:main.c        ****     CyGlobalIntEnable; /* Enable global interrupts. */
 1178              		.loc 1 601 0
 1179              	@ 601 "main.c" 1
 1180 0002 62B6     		CPSIE   i
 1181              	@ 0 "" 2
 602:main.c        **** 
 603:main.c        ****     // Start LCD module
 604:main.c        ****     LCD_Start( );	
ARM GAS  C:\Users\rohi2\AppData\Local\Temp\ccKb2bhd.s 			page 34


 1182              		.loc 1 604 0
 1183              		.thumb
 1184 0004 FFF7FEFF 		bl	LCD_Start
 1185              	.LVL124:
 605:main.c        **** 
 606:main.c        ****     // Cursor to Row 0, Col 0
 607:main.c        **** 	LCD_Position( 0, 0 );
 1186              		.loc 1 607 0
 1187 0008 0020     		movs	r0, #0
 1188 000a 0146     		mov	r1, r0
 1189 000c FFF7FEFF 		bl	LCD_Position
 1190              	.LVL125:
 608:main.c        ****     
 609:main.c        ****     ccw_flag = 0, cw_flag = 0;
 1191              		.loc 1 609 0
 1192 0010 204D     		ldr	r5, .L91
 1193 0012 0024     		movs	r4, #0
 1194 0014 AC85     		strh	r4, [r5, #44]	@ movhi
 1195 0016 EC85     		strh	r4, [r5, #46]	@ movhi
 610:main.c        ****     //hall_sensor_flag = 0;
 611:main.c        ****     
 612:main.c        ****     /* Place your initialization/startup code here (e.g. MyInst_Start()) */
 613:main.c        ****     //right sensor
 614:main.c        ****     isr_1_StartEx(RISING_EDGE_1);
 1196              		.loc 1 614 0
 1197 0018 1F48     		ldr	r0, .L91+4
 1198 001a FFF7FEFF 		bl	isr_1_StartEx
 1199              	.LVL126:
 615:main.c        ****     isr_3_StartEx(FALLING_EDGE_1);
 1200              		.loc 1 615 0
 1201 001e 1F48     		ldr	r0, .L91+8
 1202 0020 FFF7FEFF 		bl	isr_3_StartEx
 1203              	.LVL127:
 616:main.c        **** 
 617:main.c        ****     //left sensor
 618:main.c        ****     isr_2_StartEx(RISING_EDGE_2);
 1204              		.loc 1 618 0
 1205 0024 1E48     		ldr	r0, .L91+12
 1206 0026 FFF7FEFF 		bl	isr_2_StartEx
 1207              	.LVL128:
 619:main.c        ****     isr_4_StartEx(FALLING_EDGE_2);
 1208              		.loc 1 619 0
 1209 002a 1E48     		ldr	r0, .L91+16
 1210 002c FFF7FEFF 		bl	isr_4_StartEx
 1211              	.LVL129:
 620:main.c        **** 
 621:main.c        ****     //hall sensor
 622:main.c        ****     isr_5_StartEx(HALL_SENSOR);
 1212              		.loc 1 622 0
 1213 0030 1D48     		ldr	r0, .L91+20
 1214 0032 FFF7FEFF 		bl	isr_5_StartEx
 1215              	.LVL130:
 623:main.c        ****     hall_sensor_flag = 0;
 1216              		.loc 1 623 0
 1217 0036 2C70     		strb	r4, [r5]
 624:main.c        ****     
 625:main.c        ****     /* Run stepper motor orientation test once */
ARM GAS  C:\Users\rohi2\AppData\Local\Temp\ccKb2bhd.s 			page 35


 626:main.c        ****     for (i = 0; i < 20; i++)
 1218              		.loc 1 626 0
 1219 0038 1C4B     		ldr	r3, .L91+24
 1220 003a 1C60     		str	r4, [r3]
 1221 003c 0CE0     		b	.L81
 1222              	.L84:
 627:main.c        ****     {
 628:main.c        ****         if (hall_sensor_flag == 0)
 1223              		.loc 1 628 0
 1224 003e 154B     		ldr	r3, .L91
 1225 0040 1B78     		ldrb	r3, [r3]	@ zero_extendqisi2
 1226 0042 33B9     		cbnz	r3, .L82
 629:main.c        ****         {
 630:main.c        ****             clockwise();
 1227              		.loc 1 630 0
 1228 0044 FFF7FEFF 		bl	clockwise
 1229              	.LVL131:
 626:main.c        ****     {
 1230              		.loc 1 626 0
 1231 0048 184A     		ldr	r2, .L91+24
 1232 004a 1368     		ldr	r3, [r2]
 1233 004c 0133     		adds	r3, r3, #1
 1234 004e 1360     		str	r3, [r2]
 1235 0050 02E0     		b	.L81
 1236              	.L82:
 631:main.c        ****         }
 632:main.c        ****         
 633:main.c        ****         else
 634:main.c        ****         {
 635:main.c        ****             //for (i = 0; i < 2; i++)
 636:main.c        ****             clockwise();
 1237              		.loc 1 636 0
 1238 0052 FFF7FEFF 		bl	clockwise
 1239              	.LVL132:
 637:main.c        ****             
 638:main.c        ****             //stopMotor();
 639:main.c        ****             break;
 1240              		.loc 1 639 0
 1241 0056 03E0     		b	.L83
 1242              	.L81:
 626:main.c        ****     {
 1243              		.loc 1 626 0 discriminator 1
 1244 0058 144B     		ldr	r3, .L91+24
 1245 005a 1B68     		ldr	r3, [r3]
 1246 005c 132B     		cmp	r3, #19
 1247 005e EEDD     		ble	.L84
 1248              	.L83:
 640:main.c        ****         }
 641:main.c        ****     }
 642:main.c        **** 
 643:main.c        ****     /* Initial sweep of clockwise doesn't detect the hall sensor, so back */
 644:main.c        ****     if (i == 20)
 1249              		.loc 1 644 0
 1250 0060 124B     		ldr	r3, .L91+24
 1251 0062 1B68     		ldr	r3, [r3]
 1252 0064 142B     		cmp	r3, #20
 1253 0066 14D1     		bne	.L85
ARM GAS  C:\Users\rohi2\AppData\Local\Temp\ccKb2bhd.s 			page 36


 645:main.c        ****     {
 646:main.c        ****         for (i = 0; i < 50; i++)
 1254              		.loc 1 646 0
 1255 0068 0022     		movs	r2, #0
 1256 006a 104B     		ldr	r3, .L91+24
 1257 006c 1A60     		str	r2, [r3]
 1258 006e 0CE0     		b	.L86
 1259              	.L89:
 647:main.c        ****         {
 648:main.c        ****             if (!hall_sensor_flag)
 1260              		.loc 1 648 0
 1261 0070 084B     		ldr	r3, .L91
 1262 0072 1B78     		ldrb	r3, [r3]	@ zero_extendqisi2
 1263 0074 33B9     		cbnz	r3, .L87
 649:main.c        ****             {
 650:main.c        ****                 counter_clockwise();
 1264              		.loc 1 650 0
 1265 0076 FFF7FEFF 		bl	counter_clockwise
 1266              	.LVL133:
 646:main.c        ****         {
 1267              		.loc 1 646 0
 1268 007a 0C4A     		ldr	r2, .L91+24
 1269 007c 1368     		ldr	r3, [r2]
 1270 007e 0133     		adds	r3, r3, #1
 1271 0080 1360     		str	r3, [r2]
 1272 0082 02E0     		b	.L86
 1273              	.L87:
 651:main.c        ****             }
 652:main.c        ****             
 653:main.c        ****             else
 654:main.c        ****             {
 655:main.c        ****                 counter_clockwise();
 1274              		.loc 1 655 0
 1275 0084 FFF7FEFF 		bl	counter_clockwise
 1276              	.LVL134:
 656:main.c        ****                 
 657:main.c        ****                 //stopMotor();
 658:main.c        ****                 break;
 1277              		.loc 1 658 0
 1278 0088 03E0     		b	.L88
 1279              	.L86:
 646:main.c        ****         {
 1280              		.loc 1 646 0 discriminator 1
 1281 008a 084B     		ldr	r3, .L91+24
 1282 008c 1B68     		ldr	r3, [r3]
 1283 008e 312B     		cmp	r3, #49
 1284 0090 EEDD     		ble	.L89
 1285              	.L88:
 1286              	.L85:
 659:main.c        ****             }
 660:main.c        ****         }
 661:main.c        ****         
 662:main.c        ****         hall_sensor_flag = 0;
 663:main.c        ****     }
 664:main.c        ****     
 665:main.c        ****     for(;;)
 666:main.c        ****     {
ARM GAS  C:\Users\rohi2\AppData\Local\Temp\ccKb2bhd.s 			page 37


 667:main.c        ****         /* Place your application code here. */
 668:main.c        ****         //counter_clockwise();
 669:main.c        ****         //clockwise();
 670:main.c        ****         //counter_clockwise_1();
 671:main.c        ****         
 672:main.c        **** //        if (hall_sensor_flag)
 673:main.c        **** //        {
 674:main.c        **** //            Pin_2_1_Write(1);
 675:main.c        **** //            CyDelay(500);
 676:main.c        **** //            Pin_2_1_Write(0);
 677:main.c        **** //            CyDelay(500);
 678:main.c        **** //            hall_sensor_flag = 0;
 679:main.c        **** //        }
 680:main.c        ****         
 681:main.c        ****     }
 1287              		.loc 1 681 0 discriminator 1
 1288 0092 FEE7     		b	.L85
 1289              	.L92:
 1290              		.align	2
 1291              	.L91:
 1292 0094 00000000 		.word	.LANCHOR0
 1293 0098 00000000 		.word	RISING_EDGE_1
 1294 009c 00000000 		.word	FALLING_EDGE_1
 1295 00a0 00000000 		.word	RISING_EDGE_2
 1296 00a4 00000000 		.word	FALLING_EDGE_2
 1297 00a8 00000000 		.word	HALL_SENSOR
 1298 00ac 00000000 		.word	i
 1299              		.cfi_endproc
 1300              	.LFE82:
 1301              		.size	main, .-main
 1302              		.comm	lcd_string,9,4
 1303              		.global	pitch_limit
 1304              		.global	hall_sensor_flag
 1305              		.comm	prev_distance2,4,4
 1306              		.global	prev_distance
 1307              		.comm	i,4,4
 1308              		.global	no_of_steps
 1309              		.global	cw_flag
 1310              		.global	ccw_flag
 1311              		.global	hall_count
 1312              		.comm	difference,4,4
 1313              		.comm	sum,4,4
 1314              		.global	delay
 1315              		.comm	distance2,4,4
 1316              		.global	distance
 1317              		.global	sensor_delay_count
 1318              		.comm	count2,4,4
 1319              		.global	count
 1320              		.global	pitch_no_of_steps
 1321              		.global	pitch_move_steps
 1322              		.global	move_steps
 1323              		.global	prev_pitch_index
 1324              		.global	prev_yaw_index
 1325              		.global	pitch_index
 1326              		.global	pitch_table
 1327              		.global	yaw_index
 1328              		.global	yaw_table
ARM GAS  C:\Users\rohi2\AppData\Local\Temp\ccKb2bhd.s 			page 38


 1329              		.comm	code_trace_array,40,4
 1330              		.comm	bad_event_array,40,4
 1331              		.comm	percent_good_counts,4,4
 1332              		.comm	bad_dx_count,4,4
 1333              		.data
 1334              		.align	2
 1335              		.set	.LANCHOR1,. + 0
 1336              		.type	delay, %object
 1337              		.size	delay, 2
 1338              	delay:
 1339 0000 204E     		.short	20000
 1340 0002 0000     		.space	2
 1341              		.type	yaw_table, %object
 1342              		.size	yaw_table, 44
 1343              	yaw_table:
 1344 0004 F6FFFFFF 		.word	-10
 1345 0008 F8FFFFFF 		.word	-8
 1346 000c FAFFFFFF 		.word	-6
 1347 0010 FCFFFFFF 		.word	-4
 1348 0014 FEFFFFFF 		.word	-2
 1349 0018 00000000 		.word	0
 1350 001c 02000000 		.word	2
 1351 0020 04000000 		.word	4
 1352 0024 06000000 		.word	6
 1353 0028 08000000 		.word	8
 1354 002c 0A000000 		.word	10
 1355              		.type	no_of_steps, %object
 1356              		.size	no_of_steps, 2
 1357              	no_of_steps:
 1358 0030 0A00     		.short	10
 1359 0032 0000     		.space	2
 1360              		.type	prev_yaw_index, %object
 1361              		.size	prev_yaw_index, 4
 1362              	prev_yaw_index:
 1363 0034 05000000 		.word	5
 1364              		.type	pitch_table, %object
 1365              		.size	pitch_table, 44
 1366              	pitch_table:
 1367 0038 05000000 		.word	5
 1368 003c 04000000 		.word	4
 1369 0040 03000000 		.word	3
 1370 0044 02000000 		.word	2
 1371 0048 01000000 		.word	1
 1372 004c 00000000 		.word	0
 1373 0050 01000000 		.word	1
 1374 0054 02000000 		.word	2
 1375 0058 03000000 		.word	3
 1376 005c 04000000 		.word	4
 1377 0060 05000000 		.word	5
 1378              		.type	prev_pitch_index, %object
 1379              		.size	prev_pitch_index, 4
 1380              	prev_pitch_index:
 1381 0064 05000000 		.word	5
 1382              		.type	pitch_limit, %object
 1383              		.size	pitch_limit, 1
 1384              	pitch_limit:
 1385 0068 0A       		.byte	10
ARM GAS  C:\Users\rohi2\AppData\Local\Temp\ccKb2bhd.s 			page 39


 1386 0069 000000   		.section	.rodata.str1.4,"aMS",%progbits,1
 1387              		.align	2
 1388              	.LC0:
 1389 0000 20202020 		.ascii	"    \000"
 1389      00
 1390 0005 000000   		.space	3
 1391              	.LC1:
 1392 0008 20202020 		.ascii	"       \000"
 1392      20202000 
 1393              	.LC2:
 1394 0010 443A2020 		.ascii	"D:    \000"
 1394      202000
 1395 0017 00       		.bss
 1396              		.align	2
 1397              		.set	.LANCHOR0,. + 0
 1398              		.type	hall_sensor_flag, %object
 1399              		.size	hall_sensor_flag, 1
 1400              	hall_sensor_flag:
 1401 0000 00       		.space	1
 1402 0001 000000   		.space	3
 1403              		.type	hall_count, %object
 1404              		.size	hall_count, 4
 1405              	hall_count:
 1406 0004 00000000 		.space	4
 1407              		.type	count, %object
 1408              		.size	count, 4
 1409              	count:
 1410 0008 00000000 		.space	4
 1411              		.type	distance, %object
 1412              		.size	distance, 4
 1413              	distance:
 1414 000c 00000000 		.space	4
 1415              		.type	prev_distance, %object
 1416              		.size	prev_distance, 4
 1417              	prev_distance:
 1418 0010 00000000 		.space	4
 1419              		.type	sensor_delay_count, %object
 1420              		.size	sensor_delay_count, 4
 1421              	sensor_delay_count:
 1422 0014 00000000 		.space	4
 1423              		.type	yaw_index, %object
 1424              		.size	yaw_index, 4
 1425              	yaw_index:
 1426 0018 00000000 		.space	4
 1427              		.type	move_steps, %object
 1428              		.size	move_steps, 4
 1429              	move_steps:
 1430 001c 00000000 		.space	4
 1431              		.type	pitch_index, %object
 1432              		.size	pitch_index, 4
 1433              	pitch_index:
 1434 0020 00000000 		.space	4
 1435              		.type	pitch_no_of_steps, %object
 1436              		.size	pitch_no_of_steps, 4
 1437              	pitch_no_of_steps:
 1438 0024 00000000 		.space	4
 1439              		.type	pitch_move_steps, %object
ARM GAS  C:\Users\rohi2\AppData\Local\Temp\ccKb2bhd.s 			page 40


 1440              		.size	pitch_move_steps, 4
 1441              	pitch_move_steps:
 1442 0028 00000000 		.space	4
 1443              		.type	ccw_flag, %object
 1444              		.size	ccw_flag, 2
 1445              	ccw_flag:
 1446 002c 0000     		.space	2
 1447              		.type	cw_flag, %object
 1448              		.size	cw_flag, 2
 1449              	cw_flag:
 1450 002e 0000     		.space	2
 1451              		.text
 1452              	.Letext0:
 1453              		.file 2 "d:\\program files (x86)\\cypress\\psoc creator\\4.0\\psoc creator\\import\\gnu\\arm\\4.9.
 1454              		.file 3 "d:\\program files (x86)\\cypress\\psoc creator\\4.0\\psoc creator\\import\\gnu\\arm\\4.9.
 1455              		.file 4 "Generated_Source\\PSoC5/cytypes.h"
 1456              		.file 5 "Generated_Source\\PSoC5/core_cm3.h"
 1457              		.file 6 "Generated_Source\\PSoC5/Counter_1.h"
 1458              		.file 7 "Generated_Source\\PSoC5/LCD.h"
 1459              		.file 8 "Generated_Source\\PSoC5/Counter_2.h"
 1460              		.file 9 "Generated_Source\\PSoC5/Pin_A1.h"
 1461              		.file 10 "Generated_Source\\PSoC5/Pin_A2.h"
 1462              		.file 11 "Generated_Source\\PSoC5/Pin_B1.h"
 1463              		.file 12 "Generated_Source\\PSoC5/Pin_B2.h"
 1464              		.file 13 "Generated_Source\\PSoC5/Pin_A1_1.h"
 1465              		.file 14 "Generated_Source\\PSoC5/Pin_A2_1.h"
 1466              		.file 15 "Generated_Source\\PSoC5/Pin_B1_1.h"
 1467              		.file 16 "Generated_Source\\PSoC5/Pin_B2_1.h"
 1468              		.file 17 "Generated_Source\\PSoC5/CyLib.h"
 1469              		.file 18 "Generated_Source\\PSoC5/isr_1.h"
 1470              		.file 19 "Generated_Source\\PSoC5/isr_3.h"
 1471              		.file 20 "Generated_Source\\PSoC5/isr_2.h"
 1472              		.file 21 "Generated_Source\\PSoC5/isr_4.h"
 1473              		.file 22 "Generated_Source\\PSoC5/isr_5.h"